
PWMX.elf:     file format elf32-littleriscv
PWMX.elf
architecture: riscv:rv32, flags 0x00000112:
EXEC_P, HAS_SYMS, D_PAGED
start address 0x00000000

Program Header:
    LOAD off    0x00001000 vaddr 0x00000000 paddr 0x00000000 align 2**12
         filesz 0x00000004 memsz 0x00000004 flags r-x
    LOAD off    0x00001800 vaddr 0x20003800 paddr 0x00000004 align 2**12
         filesz 0x00000654 memsz 0x00000654 flags r-x
    LOAD off    0x00002658 vaddr 0x00000658 paddr 0x00000658 align 2**12
         filesz 0x000003c0 memsz 0x000003c0 flags r-x
    LOAD off    0x00002e54 vaddr 0x20003e54 paddr 0x00000a18 align 2**12
         filesz 0x00000000 memsz 0x000001ac flags rw-

Sections:
Idx Name            Size      VMA       LMA       File off  Algn  Flags
  0 .init           00000004  00000000  00000000  00001000  2**1  CONTENTS, ALLOC, LOAD, READONLY, CODE
  1 .highcodelalign 00000000  00000004  00000004  00002a18  2**0  CONTENTS
  2 .highcode       00000654  20003800  00000004  00001800  2**1  CONTENTS, ALLOC, LOAD, READONLY, CODE
  3 .text           000003c0  00000658  00000658  00002658  2**2  CONTENTS, ALLOC, LOAD, READONLY, CODE
  4 .fini           00000000  00000a18  00000a18  00002a18  2**0  CONTENTS, ALLOC, LOAD, CODE
  5 .dalign         000001ac  20003e54  00000a18  00002e54  2**0  ALLOC
  6 .dlalign        00000000  00000a18  00000a18  00002a18  2**0  CONTENTS
  7 .data           00000000  20004000  20004000  00002a18  2**0  CONTENTS, ALLOC, LOAD, DATA
  8 .bss            00000000  20004000  00000bc4  00000000  2**0  ALLOC
  9 .stack          00000000  20008000  20008000  00002a18  2**0  CONTENTS
 10 .debug_info     00003ce9  00000000  00000000  00002a18  2**0  CONTENTS, READONLY, DEBUGGING
 11 .debug_abbrev   00000a82  00000000  00000000  00006701  2**0  CONTENTS, READONLY, DEBUGGING
 12 .debug_aranges  00000158  00000000  00000000  00007188  2**3  CONTENTS, READONLY, DEBUGGING
 13 .debug_ranges   00000128  00000000  00000000  000072e0  2**3  CONTENTS, READONLY, DEBUGGING
 14 .debug_line     000021bb  00000000  00000000  00007408  2**0  CONTENTS, READONLY, DEBUGGING
 15 .debug_str      00000e7e  00000000  00000000  000095c3  2**0  CONTENTS, READONLY, DEBUGGING
 16 .comment        00000033  00000000  00000000  0000a441  2**0  CONTENTS, READONLY
 17 .debug_frame    000001ec  00000000  00000000  0000a474  2**2  CONTENTS, READONLY, DEBUGGING
 18 .debug_loc      00000744  00000000  00000000  0000a660  2**0  CONTENTS, READONLY, DEBUGGING
SYMBOL TABLE:
00000000 l    d  .init	00000000 .init
00000004 l    d  .highcodelalign	00000000 .highcodelalign
20003800 l    d  .highcode	00000000 .highcode
00000658 l    d  .text	00000000 .text
00000a18 l    d  .fini	00000000 .fini
20003e54 l    d  .dalign	00000000 .dalign
00000a18 l    d  .dlalign	00000000 .dlalign
20004000 l    d  .data	00000000 .data
20004000 l    d  .bss	00000000 .bss
20008000 l    d  .stack	00000000 .stack
00000000 l    d  .debug_info	00000000 .debug_info
00000000 l    d  .debug_abbrev	00000000 .debug_abbrev
00000000 l    d  .debug_aranges	00000000 .debug_aranges
00000000 l    d  .debug_ranges	00000000 .debug_ranges
00000000 l    d  .debug_line	00000000 .debug_line
00000000 l    d  .debug_str	00000000 .debug_str
00000000 l    d  .comment	00000000 .comment
00000000 l    d  .debug_frame	00000000 .debug_frame
00000000 l    d  .debug_loc	00000000 .debug_loc
00000000 l    df *ABS*	00000000 ./Startup/startup_CH573.o
20003800 l       .highcode	00000000 _vector_base
00000000 l    df *ABS*	00000000 CH57x_sys.c
00000000 l    df *ABS*	00000000 ISP573.c
20003a76 l       .highcode	00000000 .loop18
20003a84 l       .highcode	00000000 .loop29
20003a92 l       .highcode	00000000 .loop40
20003d12 l       .highcode	00000000 .loop401
00000000 l    df *ABS*	00000000 Main.c
00000000 l    df *ABS*	00000000 CH57x_gpio.c
00000000 l    df *ABS*	00000000 CH57x_pwm.c
20003a92 g     F .highcode	0000000e FLASH_ROM_OUT
20004800 g       .data	00000000 __global_pointer$
20003a2e g     F .highcode	0000000e mDelayuS
200039f0  w    F .highcode	0000003e HardFault_Handler
2000389c  w      .highcode	00000000 GPIOB_IRQHandler
2000389a  w      .highcode	00000000 GPIOA_IRQHandler
20003894  w      .highcode	00000000 SysTick_Handler
20003890  w      .highcode	00000000 NMI_Handler
200038ac  w      .highcode	00000000 UART1_IRQHandler
20004000 g       .bss	00000000 _sbss
20003a84 g     F .highcode	0000000e FLASH_ROM_IN
200038aa  w      .highcode	00000000 UART0_IRQHandler
00000004 g       .init	00000000 _einit
000008e6 g     F .text	0000008c PWMX_CycleCfg
200038a0  w      .highcode	00000000 BB_IRQHandler
20003b20 g     F .highcode	00000332 FLASH_EEPROM_CMD
00000840 g     F .text	000000a6 GPIOB_ModeCfg
20003898  w      .highcode	00000000 TMR0_IRQHandler
20003a64 g     F .highcode	00000012 FLASH_ROM_BEG
20003a3c g     F .highcode	00000028 mDelaymS
20003aa0 g     F .highcode	00000048 FLASH_ROM_ADDR
200038ae  w      .highcode	00000000 RTC_IRQHandler
20004000 g       .bss	00000000 _ebss
20003ae8 g     F .highcode	00000038 FLASH_ROM_WAIT
200038b6  w      .highcode	00000000 UART2_IRQHandler
200038b2  w      .highcode	00000000 PWMX_IRQHandler
00000000 g       .init	00000000 _start
200038b0  w      .highcode	00000000 ADC_IRQHandler
20003800 g       .highcode	00000000 _highcode_vma_start
200038a8  w      .highcode	00000000 TMR2_IRQHandler
20004000 g       .data	00000000 _data_vma
200038bc g     F .highcode	000000fc SetSysClock
200038a4  w      .highcode	00000000 USB_IRQHandler
00000702 g     F .text	00000098 main
00000004 g       .highcodelalign	00000000 _highcode_lma
200038a2  w      .highcode	00000000 LLE_IRQHandler
00000000 g       .init	00000000 _sinit
00000972 g     F .text	0000005e PWMX_ACTOUT
200038ba  w      .highcode	00000000 WDOG_BAT_IRQHandler
200038b4  w      .highcode	00000000 TMR3_IRQHandler
20008000 g       .stack	00000000 _eusrstack
20003896  w      .highcode	00000000 SW_Handler
0000079a g     F .text	000000a6 GPIOA_ModeCfg
20004000 g       .data	00000000 _edata
2000389e  w      .highcode	00000000 SPI0_IRQHandler
20003e54 g       .highcode	00000000 _highcode_vma_end
00000a18 g       .dlalign	00000000 _data_lma
00000658  w      .text	00000000 handle_reset
200038b8  w      .highcode	00000000 UART3_IRQHandler
20003a76 g     F .highcode	0000000e FLASH_ROM_END
200038a6  w      .highcode	00000000 TMR1_IRQHandler
200039b8 g     F .highcode	00000038 SYS_ResetExecute



Disassembly of section .init:

00000000 <_sinit>:
_start():
D:/DATA/Electronic/MCU&MPU&DSP/32bit/«ﬂ∫„WCH/CH573_CH571/CH573EVT/EVT/EXAM/SRC/Startup/startup_CH573.S:17

	.section	.init,"ax",@progbits
	.global	_start
	.align	1
_start:
	j	handle_reset
   0:	6580006f          	j	658 <handle_reset>

Disassembly of section .highcode:

20003800 <_highcode_vma_start>:
	...
_vector_base():
D:/DATA/Electronic/MCU&MPU&DSP/32bit/«ﬂ∫„WCH/CH573_CH571/CH573EVT/EVT/EXAM/SRC/Startup/startup_CH573.S:25
    .align  1
_vector_base:
    .option norvc;
    .word   0
    .word   0
        j   NMI_Handler                 /* NMI Handler */
20003808:	0880006f          	j	20003890 <NMI_Handler>
D:/DATA/Electronic/MCU&MPU&DSP/32bit/«ﬂ∫„WCH/CH573_CH571/CH573EVT/EVT/EXAM/SRC/Startup/startup_CH573.S:26
        j   HardFault_Handler           /* Hard Fault Handler */
2000380c:	1e40006f          	j	200039f0 <HardFault_Handler>
	...
D:/DATA/Electronic/MCU&MPU&DSP/32bit/«ﬂ∫„WCH/CH573_CH571/CH573EVT/EVT/EXAM/SRC/Startup/startup_CH573.S:35
    .word   0
    .word   0
    .word   0
    .word   0
    .word   0
        j   SysTick_Handler            /* SysTick Handler */
20003830:	0640006f          	j	20003894 <SysTick_Handler>
20003834:	0000                	unimp
20003836:	0000                	unimp
D:/DATA/Electronic/MCU&MPU&DSP/32bit/«ﬂ∫„WCH/CH573_CH571/CH573EVT/EVT/EXAM/SRC/Startup/startup_CH573.S:37
    .word   0
        j   SW_Handler                 /* SW Handler */
20003838:	05e0006f          	j	20003896 <SW_Handler>
2000383c:	0000                	unimp
2000383e:	0000                	unimp
D:/DATA/Electronic/MCU&MPU&DSP/32bit/«ﬂ∫„WCH/CH573_CH571/CH573EVT/EVT/EXAM/SRC/Startup/startup_CH573.S:40
    .word   0
    /* External Interrupts */
        j   TMR0_IRQHandler            /* 0:  TMR0 */
20003840:	0580006f          	j	20003898 <TMR0_IRQHandler>
D:/DATA/Electronic/MCU&MPU&DSP/32bit/«ﬂ∫„WCH/CH573_CH571/CH573EVT/EVT/EXAM/SRC/Startup/startup_CH573.S:41
        j   GPIOA_IRQHandler           /* GPIOA */
20003844:	0560006f          	j	2000389a <GPIOA_IRQHandler>
D:/DATA/Electronic/MCU&MPU&DSP/32bit/«ﬂ∫„WCH/CH573_CH571/CH573EVT/EVT/EXAM/SRC/Startup/startup_CH573.S:42
        j   GPIOB_IRQHandler           /* GPIOB */
20003848:	0540006f          	j	2000389c <GPIOB_IRQHandler>
D:/DATA/Electronic/MCU&MPU&DSP/32bit/«ﬂ∫„WCH/CH573_CH571/CH573EVT/EVT/EXAM/SRC/Startup/startup_CH573.S:43
        j   SPI0_IRQHandler            /* SPI0 */
2000384c:	0520006f          	j	2000389e <SPI0_IRQHandler>
D:/DATA/Electronic/MCU&MPU&DSP/32bit/«ﬂ∫„WCH/CH573_CH571/CH573EVT/EVT/EXAM/SRC/Startup/startup_CH573.S:44
        j   BB_IRQHandler              /* BLEB */
20003850:	0500006f          	j	200038a0 <BB_IRQHandler>
D:/DATA/Electronic/MCU&MPU&DSP/32bit/«ﬂ∫„WCH/CH573_CH571/CH573EVT/EVT/EXAM/SRC/Startup/startup_CH573.S:45
        j   LLE_IRQHandler             /* BLEL */
20003854:	04e0006f          	j	200038a2 <LLE_IRQHandler>
D:/DATA/Electronic/MCU&MPU&DSP/32bit/«ﬂ∫„WCH/CH573_CH571/CH573EVT/EVT/EXAM/SRC/Startup/startup_CH573.S:46
        j   USB_IRQHandler             /* USB */
20003858:	04c0006f          	j	200038a4 <USB_IRQHandler>
2000385c:	0000                	unimp
2000385e:	0000                	unimp
D:/DATA/Electronic/MCU&MPU&DSP/32bit/«ﬂ∫„WCH/CH573_CH571/CH573EVT/EVT/EXAM/SRC/Startup/startup_CH573.S:48
        .word   0
        j   TMR1_IRQHandler            /* TMR1 */
20003860:	0460006f          	j	200038a6 <TMR1_IRQHandler>
D:/DATA/Electronic/MCU&MPU&DSP/32bit/«ﬂ∫„WCH/CH573_CH571/CH573EVT/EVT/EXAM/SRC/Startup/startup_CH573.S:49
        j   TMR2_IRQHandler            /* TMR2 */
20003864:	0440006f          	j	200038a8 <TMR2_IRQHandler>
D:/DATA/Electronic/MCU&MPU&DSP/32bit/«ﬂ∫„WCH/CH573_CH571/CH573EVT/EVT/EXAM/SRC/Startup/startup_CH573.S:50
        j   UART0_IRQHandler           /* UART0 */
20003868:	0420006f          	j	200038aa <UART0_IRQHandler>
D:/DATA/Electronic/MCU&MPU&DSP/32bit/«ﬂ∫„WCH/CH573_CH571/CH573EVT/EVT/EXAM/SRC/Startup/startup_CH573.S:51
        j   UART1_IRQHandler           /* UART1 */
2000386c:	0400006f          	j	200038ac <UART1_IRQHandler>
D:/DATA/Electronic/MCU&MPU&DSP/32bit/«ﬂ∫„WCH/CH573_CH571/CH573EVT/EVT/EXAM/SRC/Startup/startup_CH573.S:52
        j   RTC_IRQHandler             /* RTC */
20003870:	03e0006f          	j	200038ae <RTC_IRQHandler>
D:/DATA/Electronic/MCU&MPU&DSP/32bit/«ﬂ∫„WCH/CH573_CH571/CH573EVT/EVT/EXAM/SRC/Startup/startup_CH573.S:53
        j   ADC_IRQHandler             /* ADC */
20003874:	03c0006f          	j	200038b0 <ADC_IRQHandler>
20003878:	0000                	unimp
2000387a:	0000                	unimp
D:/DATA/Electronic/MCU&MPU&DSP/32bit/«ﬂ∫„WCH/CH573_CH571/CH573EVT/EVT/EXAM/SRC/Startup/startup_CH573.S:55
        .word   0
        j   PWMX_IRQHandler            /* PWMX */
2000387c:	0360006f          	j	200038b2 <PWMX_IRQHandler>
D:/DATA/Electronic/MCU&MPU&DSP/32bit/«ﬂ∫„WCH/CH573_CH571/CH573EVT/EVT/EXAM/SRC/Startup/startup_CH573.S:56
        j   TMR3_IRQHandler            /* TMR3 */
20003880:	0340006f          	j	200038b4 <TMR3_IRQHandler>
D:/DATA/Electronic/MCU&MPU&DSP/32bit/«ﬂ∫„WCH/CH573_CH571/CH573EVT/EVT/EXAM/SRC/Startup/startup_CH573.S:57
        j   UART2_IRQHandler           /* UART2 */
20003884:	0320006f          	j	200038b6 <UART2_IRQHandler>
D:/DATA/Electronic/MCU&MPU&DSP/32bit/«ﬂ∫„WCH/CH573_CH571/CH573EVT/EVT/EXAM/SRC/Startup/startup_CH573.S:58
        j   UART3_IRQHandler           /* UART3 */
20003888:	0300006f          	j	200038b8 <UART3_IRQHandler>
D:/DATA/Electronic/MCU&MPU&DSP/32bit/«ﬂ∫„WCH/CH573_CH571/CH573EVT/EVT/EXAM/SRC/Startup/startup_CH573.S:59
        j   WDOG_BAT_IRQHandler        /* WDOG_BAT */
2000388c:	02e0006f          	j	200038ba <WDOG_BAT_IRQHandler>

20003890 <NMI_Handler>:
NMI_Handler():
D:/DATA/Electronic/MCU&MPU&DSP/32bit/«ﬂ∫„WCH/CH573_CH571/CH573EVT/EVT/EXAM/SRC/Startup/startup_CH573.S:87
    .weak   TMR3_IRQHandler
    .weak   UART2_IRQHandler
    .weak   UART3_IRQHandler
    .weak   WDOG_BAT_IRQHandler

NMI_Handler:  1:  j 1b
20003890:	a001                	j	20003890 <NMI_Handler>
D:/DATA/Electronic/MCU&MPU&DSP/32bit/«ﬂ∫„WCH/CH573_CH571/CH573EVT/EVT/EXAM/SRC/Startup/startup_CH573.S:88
HardFault_Handler:  1:  j 1b
20003892:	a001                	j	20003892 <NMI_Handler+0x2>

20003894 <SysTick_Handler>:
SysTick_Handler():
D:/DATA/Electronic/MCU&MPU&DSP/32bit/«ﬂ∫„WCH/CH573_CH571/CH573EVT/EVT/EXAM/SRC/Startup/startup_CH573.S:89
SysTick_Handler:  1:  j 1b
20003894:	a001                	j	20003894 <SysTick_Handler>

20003896 <SW_Handler>:
SW_Handler():
D:/DATA/Electronic/MCU&MPU&DSP/32bit/«ﬂ∫„WCH/CH573_CH571/CH573EVT/EVT/EXAM/SRC/Startup/startup_CH573.S:90
SW_Handler:  1:  j 1b
20003896:	a001                	j	20003896 <SW_Handler>

20003898 <TMR0_IRQHandler>:
TMR0_IRQHandler():
D:/DATA/Electronic/MCU&MPU&DSP/32bit/«ﬂ∫„WCH/CH573_CH571/CH573EVT/EVT/EXAM/SRC/Startup/startup_CH573.S:91
TMR0_IRQHandler:  1:  j 1b
20003898:	a001                	j	20003898 <TMR0_IRQHandler>

2000389a <GPIOA_IRQHandler>:
GPIOA_IRQHandler():
D:/DATA/Electronic/MCU&MPU&DSP/32bit/«ﬂ∫„WCH/CH573_CH571/CH573EVT/EVT/EXAM/SRC/Startup/startup_CH573.S:92
GPIOA_IRQHandler:  1:  j 1b
2000389a:	a001                	j	2000389a <GPIOA_IRQHandler>

2000389c <GPIOB_IRQHandler>:
GPIOB_IRQHandler():
D:/DATA/Electronic/MCU&MPU&DSP/32bit/«ﬂ∫„WCH/CH573_CH571/CH573EVT/EVT/EXAM/SRC/Startup/startup_CH573.S:93
GPIOB_IRQHandler:  1:  j 1b
2000389c:	a001                	j	2000389c <GPIOB_IRQHandler>

2000389e <SPI0_IRQHandler>:
SPI0_IRQHandler():
D:/DATA/Electronic/MCU&MPU&DSP/32bit/«ﬂ∫„WCH/CH573_CH571/CH573EVT/EVT/EXAM/SRC/Startup/startup_CH573.S:94
SPI0_IRQHandler:  1:  j 1b
2000389e:	a001                	j	2000389e <SPI0_IRQHandler>

200038a0 <BB_IRQHandler>:
BB_IRQHandler():
D:/DATA/Electronic/MCU&MPU&DSP/32bit/«ﬂ∫„WCH/CH573_CH571/CH573EVT/EVT/EXAM/SRC/Startup/startup_CH573.S:95
BB_IRQHandler:  1:  j 1b
200038a0:	a001                	j	200038a0 <BB_IRQHandler>

200038a2 <LLE_IRQHandler>:
LLE_IRQHandler():
D:/DATA/Electronic/MCU&MPU&DSP/32bit/«ﬂ∫„WCH/CH573_CH571/CH573EVT/EVT/EXAM/SRC/Startup/startup_CH573.S:96
LLE_IRQHandler:  1:  j 1b
200038a2:	a001                	j	200038a2 <LLE_IRQHandler>

200038a4 <USB_IRQHandler>:
USB_IRQHandler():
D:/DATA/Electronic/MCU&MPU&DSP/32bit/«ﬂ∫„WCH/CH573_CH571/CH573EVT/EVT/EXAM/SRC/Startup/startup_CH573.S:97
USB_IRQHandler:  1:  j 1b
200038a4:	a001                	j	200038a4 <USB_IRQHandler>

200038a6 <TMR1_IRQHandler>:
TMR1_IRQHandler():
D:/DATA/Electronic/MCU&MPU&DSP/32bit/«ﬂ∫„WCH/CH573_CH571/CH573EVT/EVT/EXAM/SRC/Startup/startup_CH573.S:98
TMR1_IRQHandler:  1:  j 1b
200038a6:	a001                	j	200038a6 <TMR1_IRQHandler>

200038a8 <TMR2_IRQHandler>:
TMR2_IRQHandler():
D:/DATA/Electronic/MCU&MPU&DSP/32bit/«ﬂ∫„WCH/CH573_CH571/CH573EVT/EVT/EXAM/SRC/Startup/startup_CH573.S:99
TMR2_IRQHandler:  1:  j 1b
200038a8:	a001                	j	200038a8 <TMR2_IRQHandler>

200038aa <UART0_IRQHandler>:
UART0_IRQHandler():
D:/DATA/Electronic/MCU&MPU&DSP/32bit/«ﬂ∫„WCH/CH573_CH571/CH573EVT/EVT/EXAM/SRC/Startup/startup_CH573.S:100
UART0_IRQHandler:  1:  j 1b
200038aa:	a001                	j	200038aa <UART0_IRQHandler>

200038ac <UART1_IRQHandler>:
UART1_IRQHandler():
D:/DATA/Electronic/MCU&MPU&DSP/32bit/«ﬂ∫„WCH/CH573_CH571/CH573EVT/EVT/EXAM/SRC/Startup/startup_CH573.S:101
UART1_IRQHandler:  1:  j 1b
200038ac:	a001                	j	200038ac <UART1_IRQHandler>

200038ae <RTC_IRQHandler>:
RTC_IRQHandler():
D:/DATA/Electronic/MCU&MPU&DSP/32bit/«ﬂ∫„WCH/CH573_CH571/CH573EVT/EVT/EXAM/SRC/Startup/startup_CH573.S:102
RTC_IRQHandler:  1:  j 1b
200038ae:	a001                	j	200038ae <RTC_IRQHandler>

200038b0 <ADC_IRQHandler>:
ADC_IRQHandler():
D:/DATA/Electronic/MCU&MPU&DSP/32bit/«ﬂ∫„WCH/CH573_CH571/CH573EVT/EVT/EXAM/SRC/Startup/startup_CH573.S:103
ADC_IRQHandler:  1:  j 1b
200038b0:	a001                	j	200038b0 <ADC_IRQHandler>

200038b2 <PWMX_IRQHandler>:
PWMX_IRQHandler():
D:/DATA/Electronic/MCU&MPU&DSP/32bit/«ﬂ∫„WCH/CH573_CH571/CH573EVT/EVT/EXAM/SRC/Startup/startup_CH573.S:104
PWMX_IRQHandler:  1:  j 1b
200038b2:	a001                	j	200038b2 <PWMX_IRQHandler>

200038b4 <TMR3_IRQHandler>:
TMR3_IRQHandler():
D:/DATA/Electronic/MCU&MPU&DSP/32bit/«ﬂ∫„WCH/CH573_CH571/CH573EVT/EVT/EXAM/SRC/Startup/startup_CH573.S:105
TMR3_IRQHandler:  1:  j 1b
200038b4:	a001                	j	200038b4 <TMR3_IRQHandler>

200038b6 <UART2_IRQHandler>:
UART2_IRQHandler():
D:/DATA/Electronic/MCU&MPU&DSP/32bit/«ﬂ∫„WCH/CH573_CH571/CH573EVT/EVT/EXAM/SRC/Startup/startup_CH573.S:106
UART2_IRQHandler:  1:  j 1b
200038b6:	a001                	j	200038b6 <UART2_IRQHandler>

200038b8 <UART3_IRQHandler>:
UART3_IRQHandler():
D:/DATA/Electronic/MCU&MPU&DSP/32bit/«ﬂ∫„WCH/CH573_CH571/CH573EVT/EVT/EXAM/SRC/Startup/startup_CH573.S:107
UART3_IRQHandler:  1:  j 1b
200038b8:	a001                	j	200038b8 <UART3_IRQHandler>

200038ba <WDOG_BAT_IRQHandler>:
WDOG_BAT_IRQHandler():
D:/DATA/Electronic/MCU&MPU&DSP/32bit/«ﬂ∫„WCH/CH573_CH571/CH573EVT/EVT/EXAM/SRC/Startup/startup_CH573.S:108
WDOG_BAT_IRQHandler:  1:  j 1b
200038ba:	a001                	j	200038ba <WDOG_BAT_IRQHandler>

200038bc <SetSysClock>:
sys_safe_access_enable():
D:\DATA\Electronic\MCU&MPU&DSP\32bit\«ﬂ∫„WCH\CH573_CH571\CH573EVT\EVT\EXAM\SRC\StdPeriphDriver\inc/CH57x_sys.h:178
 * @NOTE: Ω¯»Î∞≤»´∑√Œ ƒ£ Ω∫Û‘º16∏ˆœµÕ≥÷˜∆µ÷‹∆⁄∂º¥¶”⁄∞≤»´ƒ£ Ωœ¬£¨
 * ∏√”––ß∆⁄ƒ⁄ø…“‘∏ƒ–¥“ª∏ˆªÚ∂‡∏ˆ∞≤»´¿‡ºƒ¥Ê∆˜£¨≥¨≥ˆ…œ ˆ”––ß∆⁄∫ÛΩ´◊‘∂Ø÷’÷π∞≤»´ƒ£ Ω°£
 */
 __attribute__((always_inline)) static inline void sys_safe_access_enable(void)
{
    R8_SAFE_ACCESS_SIG = SAFE_ACCESS_SIG1;
200038bc:	400017b7          	lui	a5,0x40001
200038c0:	05700693          	li	a3,87
200038c4:	04d78023          	sb	a3,64(a5) # 40001040 <_eusrstack+0x1fff9040>
D:\DATA\Electronic\MCU&MPU&DSP\32bit\«ﬂ∫„WCH\CH573_CH571\CH573EVT\EVT\EXAM\SRC\StdPeriphDriver\inc/CH57x_sys.h:179
    R8_SAFE_ACCESS_SIG = SAFE_ACCESS_SIG2;
200038c8:	fa800713          	li	a4,-88
200038cc:	04e78023          	sb	a4,64(a5)
SetSysClock():
D:/DATA/Electronic/MCU&MPU&DSP/32bit/«ﬂ∫„WCH/CH573_CH571/CH573EVT/EVT/EXAM/SRC/StdPeriphDriver/CH57x_sys.c:29
__attribute__((section(".highcode")))
void SetSysClock(SYS_CLKTypeDef sc)
{
    uint32_t i;
    sys_safe_access_enable();
    R8_PLL_CONFIG &= ~(1 << 5); //
200038d0:	04b7c603          	lbu	a2,75(a5)
200038d4:	0df67613          	andi	a2,a2,223
200038d8:	04c785a3          	sb	a2,75(a5)
sys_safe_access_disable():
D:\DATA\Electronic\MCU&MPU&DSP\32bit\«ﬂ∫„WCH\CH573_CH571\CH573EVT\EVT\EXAM\SRC\StdPeriphDriver\inc/CH57x_sys.h:184
}

__attribute__((always_inline)) static inline void sys_safe_access_disable(void)
{
    R8_SAFE_ACCESS_SIG = 0;
200038dc:	04078023          	sb	zero,64(a5)
SetSysClock():
D:/DATA/Electronic/MCU&MPU&DSP/32bit/«ﬂ∫„WCH/CH573_CH571/CH573EVT/EVT/EXAM/SRC/StdPeriphDriver/CH57x_sys.c:31
    sys_safe_access_disable();
    if(sc & 0x20)
200038e0:	02057613          	andi	a2,a0,32
200038e4:	c62d                	beqz	a2,2000394e <SetSysClock+0x92>
D:/DATA/Electronic/MCU&MPU&DSP/32bit/«ﬂ∫„WCH/CH573_CH571/CH573EVT/EVT/EXAM/SRC/StdPeriphDriver/CH57x_sys.c:33
    { // HSE div
        if(!(R8_HFCK_PWR_CTRL & RB_CLK_XT32M_PON))
200038e6:	00a7c603          	lbu	a2,10(a5)
200038ea:	8a11                	andi	a2,a2,4
200038ec:	e20d                	bnez	a2,2000390e <SetSysClock+0x52>
sys_safe_access_enable():
D:\DATA\Electronic\MCU&MPU&DSP\32bit\«ﬂ∫„WCH\CH573_CH571\CH573EVT\EVT\EXAM\SRC\StdPeriphDriver\inc/CH57x_sys.h:178
    R8_SAFE_ACCESS_SIG = SAFE_ACCESS_SIG1;
200038ee:	04d78023          	sb	a3,64(a5)
D:\DATA\Electronic\MCU&MPU&DSP\32bit\«ﬂ∫„WCH\CH573_CH571\CH573EVT\EVT\EXAM\SRC\StdPeriphDriver\inc/CH57x_sys.h:179
    R8_SAFE_ACCESS_SIG = SAFE_ACCESS_SIG2;
200038f2:	04e78023          	sb	a4,64(a5)
SetSysClock():
D:/DATA/Electronic/MCU&MPU&DSP/32bit/«ﬂ∫„WCH/CH573_CH571/CH573EVT/EVT/EXAM/SRC/StdPeriphDriver/CH57x_sys.c:36
        {
            sys_safe_access_enable();
            R8_HFCK_PWR_CTRL |= RB_CLK_XT32M_PON; // HSE power on
200038f6:	00a7c703          	lbu	a4,10(a5)
200038fa:	00476713          	ori	a4,a4,4
200038fe:	00e78523          	sb	a4,10(a5)
20003902:	4b000793          	li	a5,1200
D:/DATA/Electronic/MCU&MPU&DSP/32bit/«ﬂ∫„WCH/CH573_CH571/CH573EVT/EVT/EXAM/SRC/StdPeriphDriver/CH57x_sys.c:39 (discriminator 3)
            for(i = 0; i < 1200; i++)
            {
                __nop();
20003906:	0001                	nop
D:/DATA/Electronic/MCU&MPU&DSP/32bit/«ﬂ∫„WCH/CH573_CH571/CH573EVT/EVT/EXAM/SRC/StdPeriphDriver/CH57x_sys.c:40 (discriminator 3)
                __nop();
20003908:	0001                	nop
2000390a:	17fd                	addi	a5,a5,-1
D:/DATA/Electronic/MCU&MPU&DSP/32bit/«ﬂ∫„WCH/CH573_CH571/CH573EVT/EVT/EXAM/SRC/StdPeriphDriver/CH57x_sys.c:37 (discriminator 3)
            for(i = 0; i < 1200; i++)
2000390c:	ffed                	bnez	a5,20003906 <SetSysClock+0x4a>
sys_safe_access_enable():
D:\DATA\Electronic\MCU&MPU&DSP\32bit\«ﬂ∫„WCH\CH573_CH571\CH573EVT\EVT\EXAM\SRC\StdPeriphDriver\inc/CH57x_sys.h:178
    R8_SAFE_ACCESS_SIG = SAFE_ACCESS_SIG1;
2000390e:	400017b7          	lui	a5,0x40001
20003912:	05700693          	li	a3,87
20003916:	04d78023          	sb	a3,64(a5) # 40001040 <_eusrstack+0x1fff9040>
D:\DATA\Electronic\MCU&MPU&DSP\32bit\«ﬂ∫„WCH\CH573_CH571\CH573EVT\EVT\EXAM\SRC\StdPeriphDriver\inc/CH57x_sys.h:179
    R8_SAFE_ACCESS_SIG = SAFE_ACCESS_SIG2;
2000391a:	fa800713          	li	a4,-88
2000391e:	04e78023          	sb	a4,64(a5)
SetSysClock():
D:/DATA/Electronic/MCU&MPU&DSP/32bit/«ﬂ∫„WCH/CH573_CH571/CH573EVT/EVT/EXAM/SRC/StdPeriphDriver/CH57x_sys.c:45
            }
        }

        sys_safe_access_enable();
        R16_CLK_SYS_CFG = (0 << 6) | (sc & 0x1f);
20003922:	897d                	andi	a0,a0,31
20003924:	00a79423          	sh	a0,8(a5)
D:/DATA/Electronic/MCU&MPU&DSP/32bit/«ﬂ∫„WCH/CH573_CH571/CH573EVT/EVT/EXAM/SRC/StdPeriphDriver/CH57x_sys.c:46
        __nop();
20003928:	0001                	nop
D:/DATA/Electronic/MCU&MPU&DSP/32bit/«ﬂ∫„WCH/CH573_CH571/CH573EVT/EVT/EXAM/SRC/StdPeriphDriver/CH57x_sys.c:47
        __nop();
2000392a:	0001                	nop
D:/DATA/Electronic/MCU&MPU&DSP/32bit/«ﬂ∫„WCH/CH573_CH571/CH573EVT/EVT/EXAM/SRC/StdPeriphDriver/CH57x_sys.c:48
        __nop();
2000392c:	0001                	nop
D:/DATA/Electronic/MCU&MPU&DSP/32bit/«ﬂ∫„WCH/CH573_CH571/CH573EVT/EVT/EXAM/SRC/StdPeriphDriver/CH57x_sys.c:49
        __nop();
2000392e:	0001                	nop
sys_safe_access_disable():
D:\DATA\Electronic\MCU&MPU&DSP\32bit\«ﬂ∫„WCH\CH573_CH571\CH573EVT\EVT\EXAM\SRC\StdPeriphDriver\inc/CH57x_sys.h:184
    R8_SAFE_ACCESS_SIG = 0;
20003930:	04078023          	sb	zero,64(a5)
sys_safe_access_enable():
D:\DATA\Electronic\MCU&MPU&DSP\32bit\«ﬂ∫„WCH\CH573_CH571\CH573EVT\EVT\EXAM\SRC\StdPeriphDriver\inc/CH57x_sys.h:178
    R8_SAFE_ACCESS_SIG = SAFE_ACCESS_SIG1;
20003934:	04d78023          	sb	a3,64(a5)
D:\DATA\Electronic\MCU&MPU&DSP\32bit\«ﬂ∫„WCH\CH573_CH571\CH573EVT\EVT\EXAM\SRC\StdPeriphDriver\inc/CH57x_sys.h:179
    R8_SAFE_ACCESS_SIG = SAFE_ACCESS_SIG2;
20003938:	04e78023          	sb	a4,64(a5)
SetSysClock():
D:/DATA/Electronic/MCU&MPU&DSP/32bit/«ﬂ∫„WCH/CH573_CH571/CH573EVT/EVT/EXAM/SRC/StdPeriphDriver/CH57x_sys.c:52
        sys_safe_access_disable();
        sys_safe_access_enable();
        R8_FLASH_CFG = 0X51;
2000393c:	05100693          	li	a3,81
20003940:	40002737          	lui	a4,0x40002
D:/DATA/Electronic/MCU&MPU&DSP/32bit/«ﬂ∫„WCH/CH573_CH571/CH573EVT/EVT/EXAM/SRC/StdPeriphDriver/CH57x_sys.c:76
        __nop();
        __nop();
        __nop();
        sys_safe_access_disable();
        sys_safe_access_enable();
        R8_FLASH_CFG = 0X53;
20003944:	80d703a3          	sb	a3,-2041(a4) # 40001807 <_eusrstack+0x1fff9807>
sys_safe_access_disable():
D:\DATA\Electronic\MCU&MPU&DSP\32bit\«ﬂ∫„WCH\CH573_CH571\CH573EVT\EVT\EXAM\SRC\StdPeriphDriver\inc/CH57x_sys.h:184
    R8_SAFE_ACCESS_SIG = 0;
20003948:	04078023          	sb	zero,64(a5)
SetSysClock():
D:/DATA/Electronic/MCU&MPU&DSP/32bit/«ﬂ∫„WCH/CH573_CH571/CH573EVT/EVT/EXAM/SRC/StdPeriphDriver/CH57x_sys.c:79
        sys_safe_access_disable();
    }
}
2000394c:	8082                	ret
D:/DATA/Electronic/MCU&MPU&DSP/32bit/«ﬂ∫„WCH/CH573_CH571/CH573EVT/EVT/EXAM/SRC/StdPeriphDriver/CH57x_sys.c:56
    else if(sc & 0x40)
2000394e:	04057613          	andi	a2,a0,64
20003952:	de6d                	beqz	a2,2000394c <SetSysClock+0x90>
D:/DATA/Electronic/MCU&MPU&DSP/32bit/«ﬂ∫„WCH/CH573_CH571/CH573EVT/EVT/EXAM/SRC/StdPeriphDriver/CH57x_sys.c:58
        if(!(R8_HFCK_PWR_CTRL & RB_CLK_PLL_PON))
20003954:	00a7c603          	lbu	a2,10(a5)
20003958:	8a41                	andi	a2,a2,16
2000395a:	e20d                	bnez	a2,2000397c <SetSysClock+0xc0>
sys_safe_access_enable():
D:\DATA\Electronic\MCU&MPU&DSP\32bit\«ﬂ∫„WCH\CH573_CH571\CH573EVT\EVT\EXAM\SRC\StdPeriphDriver\inc/CH57x_sys.h:178
    R8_SAFE_ACCESS_SIG = SAFE_ACCESS_SIG1;
2000395c:	04d78023          	sb	a3,64(a5)
D:\DATA\Electronic\MCU&MPU&DSP\32bit\«ﬂ∫„WCH\CH573_CH571\CH573EVT\EVT\EXAM\SRC\StdPeriphDriver\inc/CH57x_sys.h:179
    R8_SAFE_ACCESS_SIG = SAFE_ACCESS_SIG2;
20003960:	04e78023          	sb	a4,64(a5)
SetSysClock():
D:/DATA/Electronic/MCU&MPU&DSP/32bit/«ﬂ∫„WCH/CH573_CH571/CH573EVT/EVT/EXAM/SRC/StdPeriphDriver/CH57x_sys.c:61
            R8_HFCK_PWR_CTRL |= RB_CLK_PLL_PON; // PLL power on
20003964:	00a7c703          	lbu	a4,10(a5)
20003968:	01076713          	ori	a4,a4,16
2000396c:	00e78523          	sb	a4,10(a5)
20003970:	7d000793          	li	a5,2000
D:/DATA/Electronic/MCU&MPU&DSP/32bit/«ﬂ∫„WCH/CH573_CH571/CH573EVT/EVT/EXAM/SRC/StdPeriphDriver/CH57x_sys.c:64 (discriminator 3)
                __nop();
20003974:	0001                	nop
D:/DATA/Electronic/MCU&MPU&DSP/32bit/«ﬂ∫„WCH/CH573_CH571/CH573EVT/EVT/EXAM/SRC/StdPeriphDriver/CH57x_sys.c:65 (discriminator 3)
                __nop();
20003976:	0001                	nop
20003978:	17fd                	addi	a5,a5,-1
D:/DATA/Electronic/MCU&MPU&DSP/32bit/«ﬂ∫„WCH/CH573_CH571/CH573EVT/EVT/EXAM/SRC/StdPeriphDriver/CH57x_sys.c:62 (discriminator 3)
            for(i = 0; i < 2000; i++)
2000397a:	ffed                	bnez	a5,20003974 <SetSysClock+0xb8>
sys_safe_access_enable():
D:\DATA\Electronic\MCU&MPU&DSP\32bit\«ﬂ∫„WCH\CH573_CH571\CH573EVT\EVT\EXAM\SRC\StdPeriphDriver\inc/CH57x_sys.h:178
    R8_SAFE_ACCESS_SIG = SAFE_ACCESS_SIG1;
2000397c:	400017b7          	lui	a5,0x40001
20003980:	05700693          	li	a3,87
20003984:	04d78023          	sb	a3,64(a5) # 40001040 <_eusrstack+0x1fff9040>
D:\DATA\Electronic\MCU&MPU&DSP\32bit\«ﬂ∫„WCH\CH573_CH571\CH573EVT\EVT\EXAM\SRC\StdPeriphDriver\inc/CH57x_sys.h:179
    R8_SAFE_ACCESS_SIG = SAFE_ACCESS_SIG2;
20003988:	fa800713          	li	a4,-88
SetSysClock():
D:/DATA/Electronic/MCU&MPU&DSP/32bit/«ﬂ∫„WCH/CH573_CH571/CH573EVT/EVT/EXAM/SRC/StdPeriphDriver/CH57x_sys.c:69
        R16_CLK_SYS_CFG = (1 << 6) | (sc & 0x1f);
2000398c:	897d                	andi	a0,a0,31
sys_safe_access_enable():
D:\DATA\Electronic\MCU&MPU&DSP\32bit\«ﬂ∫„WCH\CH573_CH571\CH573EVT\EVT\EXAM\SRC\StdPeriphDriver\inc/CH57x_sys.h:179
2000398e:	04e78023          	sb	a4,64(a5)
SetSysClock():
D:/DATA/Electronic/MCU&MPU&DSP/32bit/«ﬂ∫„WCH/CH573_CH571/CH573EVT/EVT/EXAM/SRC/StdPeriphDriver/CH57x_sys.c:69
20003992:	04056513          	ori	a0,a0,64
20003996:	00a79423          	sh	a0,8(a5)
D:/DATA/Electronic/MCU&MPU&DSP/32bit/«ﬂ∫„WCH/CH573_CH571/CH573EVT/EVT/EXAM/SRC/StdPeriphDriver/CH57x_sys.c:70
        __nop();
2000399a:	0001                	nop
D:/DATA/Electronic/MCU&MPU&DSP/32bit/«ﬂ∫„WCH/CH573_CH571/CH573EVT/EVT/EXAM/SRC/StdPeriphDriver/CH57x_sys.c:71
        __nop();
2000399c:	0001                	nop
D:/DATA/Electronic/MCU&MPU&DSP/32bit/«ﬂ∫„WCH/CH573_CH571/CH573EVT/EVT/EXAM/SRC/StdPeriphDriver/CH57x_sys.c:72
        __nop();
2000399e:	0001                	nop
D:/DATA/Electronic/MCU&MPU&DSP/32bit/«ﬂ∫„WCH/CH573_CH571/CH573EVT/EVT/EXAM/SRC/StdPeriphDriver/CH57x_sys.c:73
        __nop();
200039a0:	0001                	nop
sys_safe_access_disable():
D:\DATA\Electronic\MCU&MPU&DSP\32bit\«ﬂ∫„WCH\CH573_CH571\CH573EVT\EVT\EXAM\SRC\StdPeriphDriver\inc/CH57x_sys.h:184
    R8_SAFE_ACCESS_SIG = 0;
200039a2:	04078023          	sb	zero,64(a5)
sys_safe_access_enable():
D:\DATA\Electronic\MCU&MPU&DSP\32bit\«ﬂ∫„WCH\CH573_CH571\CH573EVT\EVT\EXAM\SRC\StdPeriphDriver\inc/CH57x_sys.h:178
    R8_SAFE_ACCESS_SIG = SAFE_ACCESS_SIG1;
200039a6:	04d78023          	sb	a3,64(a5)
D:\DATA\Electronic\MCU&MPU&DSP\32bit\«ﬂ∫„WCH\CH573_CH571\CH573EVT\EVT\EXAM\SRC\StdPeriphDriver\inc/CH57x_sys.h:179
    R8_SAFE_ACCESS_SIG = SAFE_ACCESS_SIG2;
200039aa:	04e78023          	sb	a4,64(a5)
SetSysClock():
D:/DATA/Electronic/MCU&MPU&DSP/32bit/«ﬂ∫„WCH/CH573_CH571/CH573EVT/EVT/EXAM/SRC/StdPeriphDriver/CH57x_sys.c:76
        R8_FLASH_CFG = 0X53;
200039ae:	05300693          	li	a3,83
200039b2:	40002737          	lui	a4,0x40002
200039b6:	b779                	j	20003944 <SetSysClock+0x88>

200039b8 <SYS_ResetExecute>:
SYS_ResetExecute():
D:/DATA/Electronic/MCU&MPU&DSP/32bit/«ﬂ∫„WCH/CH573_CH571/CH573EVT/EVT/EXAM/SRC/StdPeriphDriver/CH57x_sys.c:141
 *
 * @return  none
 */
__attribute__((section(".highcode")))
void SYS_ResetExecute(void)
{
200039b8:	1141                	addi	sp,sp,-16
D:/DATA/Electronic/MCU&MPU&DSP/32bit/«ﬂ∫„WCH/CH573_CH571/CH573EVT/EVT/EXAM/SRC/StdPeriphDriver/CH57x_sys.c:142
    FLASH_ROM_SW_RESET();
200039ba:	4681                	li	a3,0
200039bc:	4601                	li	a2,0
200039be:	4581                	li	a1,0
200039c0:	4511                	li	a0,4
D:/DATA/Electronic/MCU&MPU&DSP/32bit/«ﬂ∫„WCH/CH573_CH571/CH573EVT/EVT/EXAM/SRC/StdPeriphDriver/CH57x_sys.c:141
{
200039c2:	c606                	sw	ra,12(sp)
D:/DATA/Electronic/MCU&MPU&DSP/32bit/«ﬂ∫„WCH/CH573_CH571/CH573EVT/EVT/EXAM/SRC/StdPeriphDriver/CH57x_sys.c:142
    FLASH_ROM_SW_RESET();
200039c4:	2ab1                	jal	20003b20 <FLASH_EEPROM_CMD>
sys_safe_access_enable():
D:\DATA\Electronic\MCU&MPU&DSP\32bit\«ﬂ∫„WCH\CH573_CH571\CH573EVT\EVT\EXAM\SRC\StdPeriphDriver\inc/CH57x_sys.h:178
    R8_SAFE_ACCESS_SIG = SAFE_ACCESS_SIG1;
200039c6:	400017b7          	lui	a5,0x40001
200039ca:	05700713          	li	a4,87
200039ce:	04e78023          	sb	a4,64(a5) # 40001040 <_eusrstack+0x1fff9040>
D:\DATA\Electronic\MCU&MPU&DSP\32bit\«ﬂ∫„WCH\CH573_CH571\CH573EVT\EVT\EXAM\SRC\StdPeriphDriver\inc/CH57x_sys.h:179
    R8_SAFE_ACCESS_SIG = SAFE_ACCESS_SIG2;
200039d2:	fa800713          	li	a4,-88
200039d6:	04e78023          	sb	a4,64(a5)
SYS_ResetExecute():
D:/DATA/Electronic/MCU&MPU&DSP/32bit/«ﬂ∫„WCH/CH573_CH571/CH573EVT/EVT/EXAM/SRC/StdPeriphDriver/CH57x_sys.c:144
    sys_safe_access_enable();
    R8_RST_WDOG_CTRL |= RB_SOFTWARE_RESET;
200039da:	0467c703          	lbu	a4,70(a5)
200039de:	00176713          	ori	a4,a4,1
200039e2:	04e78323          	sb	a4,70(a5)
sys_safe_access_disable():
D:\DATA\Electronic\MCU&MPU&DSP\32bit\«ﬂ∫„WCH\CH573_CH571\CH573EVT\EVT\EXAM\SRC\StdPeriphDriver\inc/CH57x_sys.h:184
    R8_SAFE_ACCESS_SIG = 0;
200039e6:	04078023          	sb	zero,64(a5)
SYS_ResetExecute():
D:/DATA/Electronic/MCU&MPU&DSP/32bit/«ﬂ∫„WCH/CH573_CH571/CH573EVT/EVT/EXAM/SRC/StdPeriphDriver/CH57x_sys.c:146
    sys_safe_access_disable();
}
200039ea:	40b2                	lw	ra,12(sp)
200039ec:	0141                	addi	sp,sp,16
200039ee:	8082                	ret

200039f0 <HardFault_Handler>:
HardFault_Handler():
D:/DATA/Electronic/MCU&MPU&DSP/32bit/«ﬂ∫„WCH/CH573_CH571/CH573EVT/EVT/EXAM/SRC/StdPeriphDriver/CH57x_sys.c:280
__attribute__((interrupt("WCH-Interrupt-fast")))
__attribute__((section(".highcode")))
__attribute__((weak))
void HardFault_Handler(void)
{
    FLASH_ROM_SW_RESET();
200039f0:	4681                	li	a3,0
200039f2:	4601                	li	a2,0
200039f4:	4581                	li	a1,0
200039f6:	4511                	li	a0,4
200039f8:	2225                	jal	20003b20 <FLASH_EEPROM_CMD>
sys_safe_access_enable():
D:\DATA\Electronic\MCU&MPU&DSP\32bit\«ﬂ∫„WCH\CH573_CH571\CH573EVT\EVT\EXAM\SRC\StdPeriphDriver\inc/CH57x_sys.h:178
    R8_SAFE_ACCESS_SIG = SAFE_ACCESS_SIG1;
200039fa:	400017b7          	lui	a5,0x40001
200039fe:	05700693          	li	a3,87
20003a02:	04d78023          	sb	a3,64(a5) # 40001040 <_eusrstack+0x1fff9040>
D:\DATA\Electronic\MCU&MPU&DSP\32bit\«ﬂ∫„WCH\CH573_CH571\CH573EVT\EVT\EXAM\SRC\StdPeriphDriver\inc/CH57x_sys.h:179
    R8_SAFE_ACCESS_SIG = SAFE_ACCESS_SIG2;
20003a06:	fa800713          	li	a4,-88
20003a0a:	04e78023          	sb	a4,64(a5)
HardFault_Handler():
D:/DATA/Electronic/MCU&MPU&DSP/32bit/«ﬂ∫„WCH/CH573_CH571/CH573EVT/EVT/EXAM/SRC/StdPeriphDriver/CH57x_sys.c:282
    sys_safe_access_enable();
    R16_INT32K_TUNE = 0xFFFF;
20003a0e:	567d                	li	a2,-1
20003a10:	02c79623          	sh	a2,44(a5)
sys_safe_access_enable():
D:\DATA\Electronic\MCU&MPU&DSP\32bit\«ﬂ∫„WCH\CH573_CH571\CH573EVT\EVT\EXAM\SRC\StdPeriphDriver\inc/CH57x_sys.h:178
    R8_SAFE_ACCESS_SIG = SAFE_ACCESS_SIG1;
20003a14:	04d78023          	sb	a3,64(a5)
D:\DATA\Electronic\MCU&MPU&DSP\32bit\«ﬂ∫„WCH\CH573_CH571\CH573EVT\EVT\EXAM\SRC\StdPeriphDriver\inc/CH57x_sys.h:179
    R8_SAFE_ACCESS_SIG = SAFE_ACCESS_SIG2;
20003a18:	04e78023          	sb	a4,64(a5)
HardFault_Handler():
D:/DATA/Electronic/MCU&MPU&DSP/32bit/«ﬂ∫„WCH/CH573_CH571/CH573EVT/EVT/EXAM/SRC/StdPeriphDriver/CH57x_sys.c:284
    sys_safe_access_enable();
    R8_RST_WDOG_CTRL |= RB_SOFTWARE_RESET;
20003a1c:	0467c703          	lbu	a4,70(a5)
20003a20:	00176713          	ori	a4,a4,1
20003a24:	04e78323          	sb	a4,70(a5)
sys_safe_access_disable():
D:\DATA\Electronic\MCU&MPU&DSP\32bit\«ﬂ∫„WCH\CH573_CH571\CH573EVT\EVT\EXAM\SRC\StdPeriphDriver\inc/CH57x_sys.h:184
    R8_SAFE_ACCESS_SIG = 0;
20003a28:	04078023          	sb	zero,64(a5)
HardFault_Handler():
D:/DATA/Electronic/MCU&MPU&DSP/32bit/«ﬂ∫„WCH/CH573_CH571/CH573EVT/EVT/EXAM/SRC/StdPeriphDriver/CH57x_sys.c:286 (discriminator 1)
    sys_safe_access_disable();
    while(1);
20003a2c:	a001                	j	20003a2c <HardFault_Handler+0x3c>

20003a2e <mDelayuS>:
mDelayuS():
D:/DATA/Electronic/MCU&MPU&DSP/32bit/«ﬂ∫„WCH/CH573_CH571/CH573EVT/EVT/EXAM/SRC/StdPeriphDriver/CH57x_sys.c:303
__attribute__((section(".highcode")))
void mDelayuS(uint16_t t)
{
    uint32_t i;
#if(FREQ_SYS == 60000000)
    i = t * 15;
20003a2e:	47bd                	li	a5,15
20003a30:	02f50533          	mul	a0,a0,a5
D:/DATA/Electronic/MCU&MPU&DSP/32bit/«ﬂ∫„WCH/CH573_CH571/CH573EVT/EVT/EXAM/SRC/StdPeriphDriver/CH57x_sys.c:325 (discriminator 1)
#elif(FREQ_SYS == 1000000)
    i = t >> 2;
#endif
    do
    {
        __nop();
20003a34:	0001                	nop
D:/DATA/Electronic/MCU&MPU&DSP/32bit/«ﬂ∫„WCH/CH573_CH571/CH573EVT/EVT/EXAM/SRC/StdPeriphDriver/CH57x_sys.c:326 (discriminator 1)
    } while(--i);
20003a36:	157d                	addi	a0,a0,-1
20003a38:	fd75                	bnez	a0,20003a34 <mDelayuS+0x6>
D:/DATA/Electronic/MCU&MPU&DSP/32bit/«ﬂ∫„WCH/CH573_CH571/CH573EVT/EVT/EXAM/SRC/StdPeriphDriver/CH57x_sys.c:327
}
20003a3a:	8082                	ret

20003a3c <mDelaymS>:
mDelaymS():
D:/DATA/Electronic/MCU&MPU&DSP/32bit/«ﬂ∫„WCH/CH573_CH571/CH573EVT/EVT/EXAM/SRC/StdPeriphDriver/CH57x_sys.c:340
 *
 * @return  none
 */
__attribute__((section(".highcode")))
void mDelaymS(uint16_t t)
{
20003a3c:	1141                	addi	sp,sp,-16
20003a3e:	c422                	sw	s0,8(sp)
20003a40:	c226                	sw	s1,4(sp)
20003a42:	c606                	sw	ra,12(sp)
20003a44:	84aa                	mv	s1,a0
D:/DATA/Electronic/MCU&MPU&DSP/32bit/«ﬂ∫„WCH/CH573_CH571/CH573EVT/EVT/EXAM/SRC/StdPeriphDriver/CH57x_sys.c:343
    uint16_t i;

    for(i = 0; i < t; i++)
20003a46:	4401                	li	s0,0
D:/DATA/Electronic/MCU&MPU&DSP/32bit/«ﬂ∫„WCH/CH573_CH571/CH573EVT/EVT/EXAM/SRC/StdPeriphDriver/CH57x_sys.c:343 (discriminator 1)
20003a48:	00941763          	bne	s0,s1,20003a56 <mDelaymS+0x1a>
D:/DATA/Electronic/MCU&MPU&DSP/32bit/«ﬂ∫„WCH/CH573_CH571/CH573EVT/EVT/EXAM/SRC/StdPeriphDriver/CH57x_sys.c:347
    {
        mDelayuS(1000);
    }
}
20003a4c:	40b2                	lw	ra,12(sp)
20003a4e:	4422                	lw	s0,8(sp)
20003a50:	4492                	lw	s1,4(sp)
20003a52:	0141                	addi	sp,sp,16
20003a54:	8082                	ret
D:/DATA/Electronic/MCU&MPU&DSP/32bit/«ﬂ∫„WCH/CH573_CH571/CH573EVT/EVT/EXAM/SRC/StdPeriphDriver/CH57x_sys.c:343 (discriminator 3)
    for(i = 0; i < t; i++)
20003a56:	0405                	addi	s0,s0,1
D:/DATA/Electronic/MCU&MPU&DSP/32bit/«ﬂ∫„WCH/CH573_CH571/CH573EVT/EVT/EXAM/SRC/StdPeriphDriver/CH57x_sys.c:345 (discriminator 3)
        mDelayuS(1000);
20003a58:	3e800513          	li	a0,1000
D:/DATA/Electronic/MCU&MPU&DSP/32bit/«ﬂ∫„WCH/CH573_CH571/CH573EVT/EVT/EXAM/SRC/StdPeriphDriver/CH57x_sys.c:343 (discriminator 3)
    for(i = 0; i < t; i++)
20003a5c:	0442                	slli	s0,s0,0x10
D:/DATA/Electronic/MCU&MPU&DSP/32bit/«ﬂ∫„WCH/CH573_CH571/CH573EVT/EVT/EXAM/SRC/StdPeriphDriver/CH57x_sys.c:345 (discriminator 3)
        mDelayuS(1000);
20003a5e:	3fc1                	jal	20003a2e <mDelayuS>
D:/DATA/Electronic/MCU&MPU&DSP/32bit/«ﬂ∫„WCH/CH573_CH571/CH573EVT/EVT/EXAM/SRC/StdPeriphDriver/CH57x_sys.c:343 (discriminator 3)
    for(i = 0; i < t; i++)
20003a60:	8041                	srli	s0,s0,0x10
20003a62:	b7dd                	j	20003a48 <mDelaymS+0xc>

20003a64 <FLASH_ROM_BEG>:
FLASH_ROM_BEG():
20003a64:	80040323          	sb	zero,-2042(s0)
20003a68:	4715                	li	a4,5
20003a6a:	80e40323          	sb	a4,-2042(s0)
20003a6e:	0001                	nop
20003a70:	80a40223          	sb	a0,-2044(s0)
20003a74:	8082                	ret

20003a76 <FLASH_ROM_END>:
FLASH_ROM_END():
20003a76:	80640783          	lb	a5,-2042(s0)
20003a7a:	fe07cee3          	bltz	a5,20003a76 <FLASH_ROM_END>
20003a7e:	80040323          	sb	zero,-2042(s0)
20003a82:	8082                	ret

20003a84 <FLASH_ROM_IN>:
FLASH_ROM_IN():
20003a84:	80640783          	lb	a5,-2042(s0)
20003a88:	fe07cee3          	bltz	a5,20003a84 <FLASH_ROM_IN>
20003a8c:	80444503          	lbu	a0,-2044(s0)
20003a90:	8082                	ret

20003a92 <FLASH_ROM_OUT>:
FLASH_ROM_OUT():
20003a92:	80640783          	lb	a5,-2042(s0)
20003a96:	fe07cee3          	bltz	a5,20003a92 <FLASH_ROM_OUT>
20003a9a:	80a40223          	sb	a0,-2044(s0)
20003a9e:	8082                	ret

20003aa0 <FLASH_ROM_ADDR>:
FLASH_ROM_ADDR():
20003aa0:	1141                	addi	sp,sp,-16
20003aa2:	c426                	sw	s1,8(sp)
20003aa4:	c24a                	sw	s2,4(sp)
20003aa6:	c04e                	sw	s3,0(sp)
20003aa8:	c606                	sw	ra,12(sp)
20003aaa:	0bf57713          	andi	a4,a0,191
20003aae:	47ad                	li	a5,11
20003ab0:	89aa                	mv	s3,a0
20003ab2:	892e                	mv	s2,a1
20003ab4:	4495                	li	s1,5
20003ab6:	00f70663          	beq	a4,a5,20003ac2 <FLASH_ROM_ADDR+0x22>
20003aba:	4519                	li	a0,6
20003abc:	3765                	jal	20003a64 <FLASH_ROM_BEG>
20003abe:	3f65                	jal	20003a76 <FLASH_ROM_END>
20003ac0:	448d                	li	s1,3
20003ac2:	854e                	mv	a0,s3
20003ac4:	3745                	jal	20003a64 <FLASH_ROM_BEG>
20003ac6:	59fd                	li	s3,-1
20003ac8:	14fd                	addi	s1,s1,-1
20003aca:	01349863          	bne	s1,s3,20003ada <FLASH_ROM_ADDR+0x3a>
20003ace:	40b2                	lw	ra,12(sp)
20003ad0:	44a2                	lw	s1,8(sp)
20003ad2:	4912                	lw	s2,4(sp)
20003ad4:	4982                	lw	s3,0(sp)
20003ad6:	0141                	addi	sp,sp,16
20003ad8:	8082                	ret
20003ada:	01095513          	srli	a0,s2,0x10
20003ade:	0ff57513          	andi	a0,a0,255
20003ae2:	3f45                	jal	20003a92 <FLASH_ROM_OUT>
20003ae4:	0922                	slli	s2,s2,0x8
20003ae6:	b7cd                	j	20003ac8 <FLASH_ROM_ADDR+0x28>

20003ae8 <FLASH_ROM_WAIT>:
FLASH_ROM_WAIT():
20003ae8:	1101                	addi	sp,sp,-32
20003aea:	cc26                	sw	s1,24(sp)
20003aec:	ce06                	sw	ra,28(sp)
20003aee:	000804b7          	lui	s1,0x80
20003af2:	3751                	jal	20003a76 <FLASH_ROM_END>
20003af4:	4515                	li	a0,5
20003af6:	37bd                	jal	20003a64 <FLASH_ROM_BEG>
20003af8:	3771                	jal	20003a84 <FLASH_ROM_IN>
20003afa:	3769                	jal	20003a84 <FLASH_ROM_IN>
20003afc:	c62a                	sw	a0,12(sp)
20003afe:	3fa5                	jal	20003a76 <FLASH_ROM_END>
20003b00:	4532                	lw	a0,12(sp)
20003b02:	00157793          	andi	a5,a0,1
20003b06:	eb89                	bnez	a5,20003b18 <FLASH_ROM_WAIT+0x30>
20003b08:	00156513          	ori	a0,a0,1
20003b0c:	0ff57513          	andi	a0,a0,255
20003b10:	40f2                	lw	ra,28(sp)
20003b12:	44e2                	lw	s1,24(sp)
20003b14:	6105                	addi	sp,sp,32
20003b16:	8082                	ret
20003b18:	14fd                	addi	s1,s1,-1
20003b1a:	fce9                	bnez	s1,20003af4 <FLASH_ROM_WAIT+0xc>
20003b1c:	4501                	li	a0,0
20003b1e:	bfcd                	j	20003b10 <FLASH_ROM_WAIT+0x28>

20003b20 <FLASH_EEPROM_CMD>:
FLASH_EEPROM_CMD():
20003b20:	7139                	addi	sp,sp,-64
20003b22:	dc26                	sw	s1,56(sp)
20003b24:	da4a                	sw	s2,52(sp)
20003b26:	d84e                	sw	s3,48(sp)
20003b28:	d652                	sw	s4,44(sp)
20003b2a:	d456                	sw	s5,40(sp)
20003b2c:	d25a                	sw	s6,36(sp)
20003b2e:	d05e                	sw	s7,32(sp)
20003b30:	de06                	sw	ra,60(sp)
20003b32:	ce62                	sw	s8,28(sp)
20003b34:	cc66                	sw	s9,24(sp)
20003b36:	e000e7b7          	lui	a5,0xe000e
20003b3a:	577d                	li	a4,-1
20003b3c:	0007aa83          	lw	s5,0(a5) # e000e000 <_eusrstack+0xc0006000>
20003b40:	c622                	sw	s0,12(sp)
20003b42:	0047aa03          	lw	s4,4(a5)
20003b46:	18e7a023          	sw	a4,384(a5)
20003b4a:	18e7a223          	sw	a4,388(a5)
20003b4e:	400017b7          	lui	a5,0x40001
20003b52:	05700713          	li	a4,87
20003b56:	04e78023          	sb	a4,64(a5) # 40001040 <_eusrstack+0x1fff9040>
20003b5a:	fa800713          	li	a4,-88
20003b5e:	04e78023          	sb	a4,64(a5)
20003b62:	0447c783          	lbu	a5,68(a5)
20003b66:	ff750b93          	addi	s7,a0,-9
20003b6a:	84b6                	mv	s1,a3
20003b6c:	07e2                	slli	a5,a5,0x18
20003b6e:	0ffbfb93          	andi	s7,s7,255
20003b72:	4685                	li	a3,1
20003b74:	89aa                	mv	s3,a0
20003b76:	8b2e                	mv	s6,a1
20003b78:	8932                	mv	s2,a2
20003b7a:	40002437          	lui	s0,0x40002
20003b7e:	87e1                	srai	a5,a5,0x18
20003b80:	5701                	li	a4,-32
20003b82:	0176fa63          	bgeu	a3,s7,20003b96 <FLASH_EEPROM_CMD+0x76>
20003b86:	00d50863          	beq	a0,a3,20003b96 <FLASH_EEPROM_CMD+0x76>
20003b8a:	4689                	li	a3,2
20003b8c:	02000713          	li	a4,32
20003b90:	00d51363          	bne	a0,a3,20003b96 <FLASH_EEPROM_CMD+0x76>
20003b94:	5701                	li	a4,-32
20003b96:	8fd9                	or	a5,a5,a4
20003b98:	0ff7f793          	andi	a5,a5,255
20003b9c:	40001cb7          	lui	s9,0x40001
20003ba0:	04fc8223          	sb	a5,68(s9) # 40001044 <_eusrstack+0x1fff9044>
20003ba4:	4711                	li	a4,4
20003ba6:	80e40323          	sb	a4,-2042(s0) # 40001806 <_eusrstack+0x1fff9806>
20003baa:	0ff00513          	li	a0,255
20003bae:	3d5d                	jal	20003a64 <FLASH_ROM_BEG>
20003bb0:	4c09                	li	s8,2
20003bb2:	35d1                	jal	20003a76 <FLASH_ROM_END>
20003bb4:	117c6963          	bltu	s8,s7,20003cc6 <FLASH_EEPROM_CMD+0x1a6>
20003bb8:	000707b7          	lui	a5,0x70
20003bbc:	9b3e                	add	s6,s6,a5
20003bbe:	00078737          	lui	a4,0x78
20003bc2:	5579                	li	a0,-2
20003bc4:	02eb7e63          	bgeu	s6,a4,20003c00 <FLASH_EEPROM_CMD+0xe0>
20003bc8:	009b07b3          	add	a5,s6,s1
20003bcc:	02f76a63          	bltu	a4,a5,20003c00 <FLASH_EEPROM_CMD+0xe0>
20003bd0:	47a9                	li	a5,10
20003bd2:	06f99963          	bne	s3,a5,20003c44 <FLASH_EEPROM_CMD+0x124>
20003bd6:	e489                	bnez	s1,20003be0 <FLASH_EEPROM_CMD+0xc0>
20003bd8:	4481                	li	s1,0
20003bda:	3d71                	jal	20003a76 <FLASH_ROM_END>
20003bdc:	8526                	mv	a0,s1
20003bde:	a00d                	j	20003c00 <FLASH_EEPROM_CMD+0xe0>
20003be0:	85da                	mv	a1,s6
20003be2:	4509                	li	a0,2
20003be4:	3d75                	jal	20003aa0 <FLASH_ROM_ADDR>
20003be6:	0905                	addi	s2,s2,1
20003be8:	fff94503          	lbu	a0,-1(s2)
20003bec:	14fd                	addi	s1,s1,-1
20003bee:	0b05                	addi	s6,s6,1
20003bf0:	354d                	jal	20003a92 <FLASH_ROM_OUT>
20003bf2:	c481                	beqz	s1,20003bfa <FLASH_EEPROM_CMD+0xda>
20003bf4:	0ffb7793          	andi	a5,s6,255
20003bf8:	f7fd                	bnez	a5,20003be6 <FLASH_EEPROM_CMD+0xc6>
20003bfa:	35fd                	jal	20003ae8 <FLASH_ROM_WAIT>
20003bfc:	fd69                	bnez	a0,20003bd6 <FLASH_EEPROM_CMD+0xb6>
20003bfe:	557d                	li	a0,-1
20003c00:	400017b7          	lui	a5,0x40001
20003c04:	05700713          	li	a4,87
20003c08:	04e78023          	sb	a4,64(a5) # 40001040 <_eusrstack+0x1fff9040>
20003c0c:	fa800713          	li	a4,-88
20003c10:	04e78023          	sb	a4,64(a5)
20003c14:	0447c703          	lbu	a4,68(a5)
20003c18:	8b41                	andi	a4,a4,16
20003c1a:	04e78223          	sb	a4,68(a5)
20003c1e:	50f2                	lw	ra,60(sp)
20003c20:	e000e7b7          	lui	a5,0xe000e
20003c24:	1157a023          	sw	s5,256(a5) # e000e100 <_eusrstack+0xc0006100>
20003c28:	1147a223          	sw	s4,260(a5)
20003c2c:	54e2                	lw	s1,56(sp)
20003c2e:	4432                	lw	s0,12(sp)
20003c30:	5952                	lw	s2,52(sp)
20003c32:	59c2                	lw	s3,48(sp)
20003c34:	5a32                	lw	s4,44(sp)
20003c36:	5aa2                	lw	s5,40(sp)
20003c38:	5b12                	lw	s6,36(sp)
20003c3a:	5b82                	lw	s7,32(sp)
20003c3c:	4c72                	lw	s8,28(sp)
20003c3e:	4ce2                	lw	s9,24(sp)
20003c40:	6121                	addi	sp,sp,64
20003c42:	8082                	ret
20003c44:	47a5                	li	a5,9
20003c46:	06f99563          	bne	s3,a5,20003cb0 <FLASH_EEPROM_CMD+0x190>
20003c4a:	6985                	lui	s3,0x1
20003c4c:	0ff00913          	li	s2,255
20003c50:	009906b3          	add	a3,s2,s1
20003c54:	012b74b3          	and	s1,s6,s2
20003c58:	94b6                	add	s1,s1,a3
20003c5a:	fff94913          	not	s2,s2
20003c5e:	009974b3          	and	s1,s2,s1
20003c62:	6b85                	lui	s7,0x1
20003c64:	01697933          	and	s2,s2,s6
20003c68:	6b41                	lui	s6,0x10
20003c6a:	fff98793          	addi	a5,s3,-1 # fff <_data_lma+0x5e7>
20003c6e:	0127f7b3          	and	a5,a5,s2
20003c72:	e399                	bnez	a5,20003c78 <FLASH_EEPROM_CMD+0x158>
20003c74:	0134fc63          	bgeu	s1,s3,20003c8c <FLASH_EEPROM_CMD+0x16c>
20003c78:	0049d993          	srli	s3,s3,0x4
20003c7c:	47c1                	li	a5,16
20003c7e:	ff37e6e3          	bltu	a5,s3,20003c6a <FLASH_EEPROM_CMD+0x14a>
20003c82:	bf99                	j	20003bd8 <FLASH_EEPROM_CMD+0xb8>
20003c84:	6905                	lui	s2,0x1
20003c86:	69c1                	lui	s3,0x10
20003c88:	197d                	addi	s2,s2,-1
20003c8a:	b7d9                	j	20003c50 <FLASH_EEPROM_CMD+0x130>
20003c8c:	0d800513          	li	a0,216
20003c90:	01698863          	beq	s3,s6,20003ca0 <FLASH_EEPROM_CMD+0x180>
20003c94:	02000513          	li	a0,32
20003c98:	01798463          	beq	s3,s7,20003ca0 <FLASH_EEPROM_CMD+0x180>
20003c9c:	08100513          	li	a0,129
20003ca0:	85ca                	mv	a1,s2
20003ca2:	3bfd                	jal	20003aa0 <FLASH_ROM_ADDR>
20003ca4:	3591                	jal	20003ae8 <FLASH_ROM_WAIT>
20003ca6:	dd21                	beqz	a0,20003bfe <FLASH_EEPROM_CMD+0xde>
20003ca8:	994e                	add	s2,s2,s3
20003caa:	413484b3          	sub	s1,s1,s3
20003cae:	b7d9                	j	20003c74 <FLASH_EEPROM_CMD+0x154>
20003cb0:	85da                	mv	a1,s6
20003cb2:	452d                	li	a0,11
20003cb4:	33f5                	jal	20003aa0 <FLASH_ROM_ADDR>
20003cb6:	94ca                	add	s1,s1,s2
20003cb8:	f29900e3          	beq	s2,s1,20003bd8 <FLASH_EEPROM_CMD+0xb8>
20003cbc:	0905                	addi	s2,s2,1
20003cbe:	33d9                	jal	20003a84 <FLASH_ROM_IN>
20003cc0:	fea90fa3          	sb	a0,-1(s2) # fff <_data_lma+0x5e7>
20003cc4:	bfd5                	j	20003cb8 <FLASH_EEPROM_CMD+0x198>
20003cc6:	fff98793          	addi	a5,s3,-1 # ffff <_data_lma+0xf5e7>
20003cca:	0ff7f793          	andi	a5,a5,255
20003cce:	08fc6c63          	bltu	s8,a5,20003d66 <.loop401+0x54>
20003cd2:	045cc703          	lbu	a4,69(s9)
20003cd6:	000807b7          	lui	a5,0x80
20003cda:	02077713          	andi	a4,a4,32
20003cde:	e319                	bnez	a4,20003ce4 <FLASH_EEPROM_CMD+0x1c4>
20003ce0:	000787b7          	lui	a5,0x78
20003ce4:	5579                	li	a0,-2
20003ce6:	f0fb7de3          	bgeu	s6,a5,20003c00 <FLASH_EEPROM_CMD+0xe0>
20003cea:	009b0733          	add	a4,s6,s1
20003cee:	f0e7e9e3          	bltu	a5,a4,20003c00 <FLASH_EEPROM_CMD+0xe0>
20003cf2:	4789                	li	a5,2
20003cf4:	04f99063          	bne	s3,a5,20003d34 <.loop401+0x22>
20003cf8:	8089                	srli	s1,s1,0x2
20003cfa:	49d5                	li	s3,21
20003cfc:	ec048ee3          	beqz	s1,20003bd8 <FLASH_EEPROM_CMD+0xb8>
20003d00:	85da                	mv	a1,s6
20003d02:	4509                	li	a0,2
20003d04:	3b71                	jal	20003aa0 <FLASH_ROM_ADDR>
20003d06:	0911                	addi	s2,s2,4
20003d08:	ffc92703          	lw	a4,-4(s2)
20003d0c:	4791                	li	a5,4
20003d0e:	80e42023          	sw	a4,-2048(s0)

20003d12 <.loop401>:
20003d12:	80640703          	lb	a4,-2042(s0)
20003d16:	fe074ee3          	bltz	a4,20003d12 <.loop401>
20003d1a:	81340323          	sb	s3,-2042(s0)
20003d1e:	17fd                	addi	a5,a5,-1
20003d20:	fbed                	bnez	a5,20003d12 <.loop401>
20003d22:	14fd                	addi	s1,s1,-1
20003d24:	0b11                	addi	s6,s6,4
20003d26:	c481                	beqz	s1,20003d2e <.loop401+0x1c>
20003d28:	0ffb7793          	andi	a5,s6,255
20003d2c:	ffe9                	bnez	a5,20003d06 <FLASH_EEPROM_CMD+0x1e6>
20003d2e:	3b6d                	jal	20003ae8 <FLASH_ROM_WAIT>
20003d30:	f571                	bnez	a0,20003cfc <FLASH_EEPROM_CMD+0x1dc>
20003d32:	b5f1                	j	20003bfe <FLASH_EEPROM_CMD+0xde>
20003d34:	4785                	li	a5,1
20003d36:	f4f987e3          	beq	s3,a5,20003c84 <FLASH_EEPROM_CMD+0x164>
20003d3a:	85da                	mv	a1,s6
20003d3c:	452d                	li	a0,11
20003d3e:	338d                	jal	20003aa0 <FLASH_ROM_ADDR>
20003d40:	fff48993          	addi	s3,s1,-1 # 7ffff <_data_lma+0x7f5e7>
20003d44:	e8048ae3          	beqz	s1,20003bd8 <FLASH_EEPROM_CMD+0xb8>
20003d48:	3b35                	jal	20003a84 <FLASH_ROM_IN>
20003d4a:	0039f793          	andi	a5,s3,3
20003d4e:	eb91                	bnez	a5,20003d62 <.loop401+0x50>
20003d50:	80042683          	lw	a3,-2048(s0)
20003d54:	00092703          	lw	a4,0(s2)
20003d58:	00490793          	addi	a5,s2,4
20003d5c:	e6e69fe3          	bne	a3,a4,20003bda <FLASH_EEPROM_CMD+0xba>
20003d60:	893e                	mv	s2,a5
20003d62:	84ce                	mv	s1,s3
20003d64:	bff1                	j	20003d40 <.loop401+0x2e>
20003d66:	47b5                	li	a5,13
20003d68:	00f99663          	bne	s3,a5,20003d74 <.loop401+0x62>
20003d6c:	0b900513          	li	a0,185
20003d70:	39d5                	jal	20003a64 <FLASH_ROM_BEG>
20003d72:	b59d                	j	20003bd8 <FLASH_EEPROM_CMD+0xb8>
20003d74:	47b1                	li	a5,12
20003d76:	0ab00513          	li	a0,171
20003d7a:	fef98be3          	beq	s3,a5,20003d70 <.loop401+0x5e>
20003d7e:	4799                	li	a5,6
20003d80:	02f99e63          	bne	s3,a5,20003dbc <.loop401+0xaa>
20003d84:	85da                	mv	a1,s6
20003d86:	452d                	li	a0,11
20003d88:	3b21                	jal	20003aa0 <FLASH_ROM_ADDR>
20003d8a:	4481                	li	s1,0
20003d8c:	4b8d                	li	s7,3
20003d8e:	49a1                	li	s3,8
20003d90:	39d5                	jal	20003a84 <FLASH_ROM_IN>
20003d92:	01749663          	bne	s1,s7,20003d9e <.loop401+0x8c>
20003d96:	80042783          	lw	a5,-2048(s0)
20003d9a:	00f92023          	sw	a5,0(s2)
20003d9e:	0485                	addi	s1,s1,1
20003da0:	ff3498e3          	bne	s1,s3,20003d90 <.loop401+0x7e>
20003da4:	80042783          	lw	a5,-2048(s0)
20003da8:	012b1713          	slli	a4,s6,0x12
20003dac:	00075563          	bgez	a4,20003db6 <.loop401+0xa4>
20003db0:	00f91223          	sh	a5,4(s2)
20003db4:	b515                	j	20003bd8 <FLASH_EEPROM_CMD+0xb8>
20003db6:	00f92223          	sw	a5,4(s2)
20003dba:	bd39                	j	20003bd8 <FLASH_EEPROM_CMD+0xb8>
20003dbc:	479d                	li	a5,7
20003dbe:	02f99963          	bne	s3,a5,20003df0 <.loop401+0xde>
20003dc2:	4581                	li	a1,0
20003dc4:	04b00513          	li	a0,75
20003dc8:	39e1                	jal	20003aa0 <FLASH_ROM_ADDR>
20003dca:	44bd                	li	s1,15
20003dcc:	00092023          	sw	zero,0(s2)
20003dd0:	00092223          	sw	zero,4(s2)
20003dd4:	59fd                	li	s3,-1
20003dd6:	317d                	jal	20003a84 <FLASH_ROM_IN>
20003dd8:	0074f793          	andi	a5,s1,7
20003ddc:	97ca                	add	a5,a5,s2
20003dde:	0007c703          	lbu	a4,0(a5) # 78000 <_data_lma+0x775e8>
20003de2:	14fd                	addi	s1,s1,-1
20003de4:	8d39                	xor	a0,a0,a4
20003de6:	00a78023          	sb	a0,0(a5)
20003dea:	ff3496e3          	bne	s1,s3,20003dd6 <.loop401+0xc4>
20003dee:	b3ed                	j	20003bd8 <FLASH_EEPROM_CMD+0xb8>
20003df0:	47a1                	li	a5,8
20003df2:	04f99263          	bne	s3,a5,20003e36 <.loop401+0x124>
20003df6:	39cd                	jal	20003ae8 <FLASH_ROM_WAIT>
20003df8:	4481                	li	s1,0
20003dfa:	000b0d63          	beqz	s6,20003e14 <.loop401+0x102>
20003dfe:	478d                	li	a5,3
20003e00:	03c00493          	li	s1,60
20003e04:	00fb0863          	beq	s6,a5,20003e14 <.loop401+0x102>
20003e08:	05000493          	li	s1,80
20003e0c:	018b0463          	beq	s6,s8,20003e14 <.loop401+0x102>
20003e10:	04400493          	li	s1,68
20003e14:	07c57513          	andi	a0,a0,124
20003e18:	dc9500e3          	beq	a0,s1,20003bd8 <FLASH_EEPROM_CMD+0xb8>
20003e1c:	4519                	li	a0,6
20003e1e:	3199                	jal	20003a64 <FLASH_ROM_BEG>
20003e20:	3999                	jal	20003a76 <FLASH_ROM_END>
20003e22:	4505                	li	a0,1
20003e24:	3181                	jal	20003a64 <FLASH_ROM_BEG>
20003e26:	8526                	mv	a0,s1
20003e28:	31ad                	jal	20003a92 <FLASH_ROM_OUT>
20003e2a:	4509                	li	a0,2
20003e2c:	319d                	jal	20003a92 <FLASH_ROM_OUT>
20003e2e:	396d                	jal	20003ae8 <FLASH_ROM_WAIT>
20003e30:	da0514e3          	bnez	a0,20003bd8 <FLASH_EEPROM_CMD+0xb8>
20003e34:	b3e9                	j	20003bfe <FLASH_EEPROM_CMD+0xde>
20003e36:	4791                	li	a5,4
20003e38:	00f99963          	bne	s3,a5,20003e4a <.loop401+0x138>
20003e3c:	06600513          	li	a0,102
20003e40:	3115                	jal	20003a64 <FLASH_ROM_BEG>
20003e42:	3915                	jal	20003a76 <FLASH_ROM_END>
20003e44:	09900513          	li	a0,153
20003e48:	b725                	j	20003d70 <.loop401+0x5e>
20003e4a:	d80987e3          	beqz	s3,20003bd8 <FLASH_EEPROM_CMD+0xb8>
20003e4e:	54f1                	li	s1,-4
20003e50:	b369                	j	20003bda <FLASH_EEPROM_CMD+0xba>
	...

Disassembly of section .text:

00000658 <handle_reset>:
handle_reset():
D:/DATA/Electronic/MCU&MPU&DSP/32bit/«ﬂ∫„WCH/CH573_CH571/CH573EVT/EVT/EXAM/SRC/Startup/startup_CH573.S:116
	.weak	handle_reset
	.align	1
handle_reset:
.option push 
.option	norelax 
	la gp, __global_pointer$
 658:	20004197          	auipc	gp,0x20004
 65c:	1a818193          	addi	gp,gp,424 # 20004800 <__global_pointer$>
D:/DATA/Electronic/MCU&MPU&DSP/32bit/«ﬂ∫„WCH/CH573_CH571/CH573EVT/EVT/EXAM/SRC/Startup/startup_CH573.S:119
.option	pop 
1:
	la sp, _eusrstack 
 660:	20008117          	auipc	sp,0x20008
 664:	9a010113          	addi	sp,sp,-1632 # 20008000 <_eusrstack>
D:/DATA/Electronic/MCU&MPU&DSP/32bit/«ﬂ∫„WCH/CH573_CH571/CH573EVT/EVT/EXAM/SRC/Startup/startup_CH573.S:123

/* Load highcode code  section from flash to RAM */
2:
    la a0, _highcode_lma
 668:	00400513          	li	a0,4
D:/DATA/Electronic/MCU&MPU&DSP/32bit/«ﬂ∫„WCH/CH573_CH571/CH573EVT/EVT/EXAM/SRC/Startup/startup_CH573.S:124
    la a1, _highcode_vma_start
 66c:	20003597          	auipc	a1,0x20003
 670:	19458593          	addi	a1,a1,404 # 20003800 <_highcode_vma_start>
D:/DATA/Electronic/MCU&MPU&DSP/32bit/«ﬂ∫„WCH/CH573_CH571/CH573EVT/EVT/EXAM/SRC/Startup/startup_CH573.S:125
    la a2, _highcode_vma_end
 674:	20003617          	auipc	a2,0x20003
 678:	7e060613          	addi	a2,a2,2016 # 20003e54 <_highcode_vma_end>
D:/DATA/Electronic/MCU&MPU&DSP/32bit/«ﬂ∫„WCH/CH573_CH571/CH573EVT/EVT/EXAM/SRC/Startup/startup_CH573.S:126
    bgeu a1, a2, 2f
 67c:	00c5fa63          	bgeu	a1,a2,690 <handle_reset+0x38>
D:/DATA/Electronic/MCU&MPU&DSP/32bit/«ﬂ∫„WCH/CH573_CH571/CH573EVT/EVT/EXAM/SRC/Startup/startup_CH573.S:128
1:
    lw t0, (a0)
 680:	00052283          	lw	t0,0(a0)
D:/DATA/Electronic/MCU&MPU&DSP/32bit/«ﬂ∫„WCH/CH573_CH571/CH573EVT/EVT/EXAM/SRC/Startup/startup_CH573.S:129
    sw t0, (a1)
 684:	0055a023          	sw	t0,0(a1)
D:/DATA/Electronic/MCU&MPU&DSP/32bit/«ﬂ∫„WCH/CH573_CH571/CH573EVT/EVT/EXAM/SRC/Startup/startup_CH573.S:130
    addi a0, a0, 4
 688:	0511                	addi	a0,a0,4
D:/DATA/Electronic/MCU&MPU&DSP/32bit/«ﬂ∫„WCH/CH573_CH571/CH573EVT/EVT/EXAM/SRC/Startup/startup_CH573.S:131
    addi a1, a1, 4
 68a:	0591                	addi	a1,a1,4
D:/DATA/Electronic/MCU&MPU&DSP/32bit/«ﬂ∫„WCH/CH573_CH571/CH573EVT/EVT/EXAM/SRC/Startup/startup_CH573.S:132
    bltu a1, a2, 1b
 68c:	fec5eae3          	bltu	a1,a2,680 <handle_reset+0x28>
D:/DATA/Electronic/MCU&MPU&DSP/32bit/«ﬂ∫„WCH/CH573_CH571/CH573EVT/EVT/EXAM/SRC/Startup/startup_CH573.S:136

/* Load data section from flash to RAM */
2:
	la a0, _data_lma
 690:	00000517          	auipc	a0,0x0
 694:	38850513          	addi	a0,a0,904 # a18 <_data_lma>
D:/DATA/Electronic/MCU&MPU&DSP/32bit/«ﬂ∫„WCH/CH573_CH571/CH573EVT/EVT/EXAM/SRC/Startup/startup_CH573.S:137
	la a1, _data_vma
 698:	20004597          	auipc	a1,0x20004
 69c:	96858593          	addi	a1,a1,-1688 # 20004000 <_data_vma>
D:/DATA/Electronic/MCU&MPU&DSP/32bit/«ﬂ∫„WCH/CH573_CH571/CH573EVT/EVT/EXAM/SRC/Startup/startup_CH573.S:138
	la a2, _edata
 6a0:	20004617          	auipc	a2,0x20004
 6a4:	96060613          	addi	a2,a2,-1696 # 20004000 <_data_vma>
D:/DATA/Electronic/MCU&MPU&DSP/32bit/«ﬂ∫„WCH/CH573_CH571/CH573EVT/EVT/EXAM/SRC/Startup/startup_CH573.S:139
	bgeu a1, a2, 2f
 6a8:	00c5fa63          	bgeu	a1,a2,6bc <handle_reset+0x64>
D:/DATA/Electronic/MCU&MPU&DSP/32bit/«ﬂ∫„WCH/CH573_CH571/CH573EVT/EVT/EXAM/SRC/Startup/startup_CH573.S:141
1:
	lw t0, (a0)
 6ac:	00052283          	lw	t0,0(a0)
D:/DATA/Electronic/MCU&MPU&DSP/32bit/«ﬂ∫„WCH/CH573_CH571/CH573EVT/EVT/EXAM/SRC/Startup/startup_CH573.S:142
	sw t0, (a1)
 6b0:	0055a023          	sw	t0,0(a1)
D:/DATA/Electronic/MCU&MPU&DSP/32bit/«ﬂ∫„WCH/CH573_CH571/CH573EVT/EVT/EXAM/SRC/Startup/startup_CH573.S:143
	addi a0, a0, 4
 6b4:	0511                	addi	a0,a0,4
D:/DATA/Electronic/MCU&MPU&DSP/32bit/«ﬂ∫„WCH/CH573_CH571/CH573EVT/EVT/EXAM/SRC/Startup/startup_CH573.S:144
	addi a1, a1, 4
 6b6:	0591                	addi	a1,a1,4
D:/DATA/Electronic/MCU&MPU&DSP/32bit/«ﬂ∫„WCH/CH573_CH571/CH573EVT/EVT/EXAM/SRC/Startup/startup_CH573.S:145
	bltu a1, a2, 1b
 6b8:	fec5eae3          	bltu	a1,a2,6ac <handle_reset+0x54>
D:/DATA/Electronic/MCU&MPU&DSP/32bit/«ﬂ∫„WCH/CH573_CH571/CH573EVT/EVT/EXAM/SRC/Startup/startup_CH573.S:148
2:
	/* clear bss section */
	la a0, _sbss
 6bc:	20004517          	auipc	a0,0x20004
 6c0:	94450513          	addi	a0,a0,-1724 # 20004000 <_data_vma>
D:/DATA/Electronic/MCU&MPU&DSP/32bit/«ﬂ∫„WCH/CH573_CH571/CH573EVT/EVT/EXAM/SRC/Startup/startup_CH573.S:149
	la a1, _ebss
 6c4:	20004597          	auipc	a1,0x20004
 6c8:	93c58593          	addi	a1,a1,-1732 # 20004000 <_data_vma>
D:/DATA/Electronic/MCU&MPU&DSP/32bit/«ﬂ∫„WCH/CH573_CH571/CH573EVT/EVT/EXAM/SRC/Startup/startup_CH573.S:150
	bgeu a0, a1, 2f
 6cc:	00b57763          	bgeu	a0,a1,6da <handle_reset+0x82>
D:/DATA/Electronic/MCU&MPU&DSP/32bit/«ﬂ∫„WCH/CH573_CH571/CH573EVT/EVT/EXAM/SRC/Startup/startup_CH573.S:152
1:
	sw zero, (a0)
 6d0:	00052023          	sw	zero,0(a0)
D:/DATA/Electronic/MCU&MPU&DSP/32bit/«ﬂ∫„WCH/CH573_CH571/CH573EVT/EVT/EXAM/SRC/Startup/startup_CH573.S:153
	addi a0, a0, 4
 6d4:	0511                	addi	a0,a0,4
D:/DATA/Electronic/MCU&MPU&DSP/32bit/«ﬂ∫„WCH/CH573_CH571/CH573EVT/EVT/EXAM/SRC/Startup/startup_CH573.S:154
	bltu a0, a1, 1b
 6d6:	feb56de3          	bltu	a0,a1,6d0 <handle_reset+0x78>
D:/DATA/Electronic/MCU&MPU&DSP/32bit/«ﬂ∫„WCH/CH573_CH571/CH573EVT/EVT/EXAM/SRC/Startup/startup_CH573.S:156
2:
    li t0, 0x88
 6da:	08800293          	li	t0,136
D:/DATA/Electronic/MCU&MPU&DSP/32bit/«ﬂ∫„WCH/CH573_CH571/CH573EVT/EVT/EXAM/SRC/Startup/startup_CH573.S:157
    csrs mstatus, t0
 6de:	3002a073          	csrs	mstatus,t0
D:/DATA/Electronic/MCU&MPU&DSP/32bit/«ﬂ∫„WCH/CH573_CH571/CH573EVT/EVT/EXAM/SRC/Startup/startup_CH573.S:158
	la t0, _vector_base
 6e2:	20003297          	auipc	t0,0x20003
 6e6:	11e28293          	addi	t0,t0,286 # 20003800 <_highcode_vma_start>
D:/DATA/Electronic/MCU&MPU&DSP/32bit/«ﬂ∫„WCH/CH573_CH571/CH573EVT/EVT/EXAM/SRC/Startup/startup_CH573.S:159
    ori t0, t0, 1
 6ea:	0012e293          	ori	t0,t0,1
D:/DATA/Electronic/MCU&MPU&DSP/32bit/«ﬂ∫„WCH/CH573_CH571/CH573EVT/EVT/EXAM/SRC/Startup/startup_CH573.S:160
	csrw mtvec, t0
 6ee:	30529073          	csrw	mtvec,t0
D:/DATA/Electronic/MCU&MPU&DSP/32bit/«ﬂ∫„WCH/CH573_CH571/CH573EVT/EVT/EXAM/SRC/Startup/startup_CH573.S:161
	la t0, main
 6f2:	00000297          	auipc	t0,0x0
 6f6:	01028293          	addi	t0,t0,16 # 702 <main>
D:/DATA/Electronic/MCU&MPU&DSP/32bit/«ﬂ∫„WCH/CH573_CH571/CH573EVT/EVT/EXAM/SRC/Startup/startup_CH573.S:162
	csrw mepc, t0
 6fa:	34129073          	csrw	mepc,t0
D:/DATA/Electronic/MCU&MPU&DSP/32bit/«ﬂ∫„WCH/CH573_CH571/CH573EVT/EVT/EXAM/SRC/Startup/startup_CH573.S:169
	/* enable vector relocation
	li t0, 0xE000ED14
	li t1, 1
	sw t1, 0(t0)*/
	
	mret
 6fe:	30200073          	mret

00000702 <main>:
main():
D:\DATA\Electronic\MCU&MPU&DSP\32bit\«ﬂ∫„WCH\CH573_CH571\CH573EVT\EVT\EXAM\PWMX\obj/../src/Main.c:23
 * @brief   ÷˜∫Ø ˝
 *
 * @return  none
 */
int main()
{
 702:	1141                	addi	sp,sp,-16
D:\DATA\Electronic\MCU&MPU&DSP\32bit\«ﬂ∫„WCH\CH573_CH571\CH573EVT\EVT\EXAM\PWMX\obj/../src/Main.c:24
    SetSysClock(CLK_SOURCE_PLL_60MHz);
 704:	04800513          	li	a0,72
D:\DATA\Electronic\MCU&MPU&DSP\32bit\«ﬂ∫„WCH\CH573_CH571\CH573EVT\EVT\EXAM\PWMX\obj/../src/Main.c:23
{
 708:	c606                	sw	ra,12(sp)
D:\DATA\Electronic\MCU&MPU&DSP\32bit\«ﬂ∫„WCH\CH573_CH571\CH573EVT\EVT\EXAM\PWMX\obj/../src/Main.c:24
    SetSysClock(CLK_SOURCE_PLL_60MHz);
 70a:	20003097          	auipc	ra,0x20003
 70e:	1b2080e7          	jalr	434(ra) # 200038bc <SetSysClock>
D:\DATA\Electronic\MCU&MPU&DSP\32bit\«ﬂ∫„WCH\CH573_CH571\CH573EVT\EVT\EXAM\PWMX\obj/../src/Main.c:27

    /* ≈‰÷√GPIO */
    GPIOA_ModeCfg(GPIO_Pin_12, GPIO_ModeOut_PP_5mA); // PA12 - PWM4
 712:	458d                	li	a1,3
 714:	6505                	lui	a0,0x1
 716:	2051                	jal	79a <GPIOA_ModeCfg>
D:\DATA\Electronic\MCU&MPU&DSP\32bit\«ﬂ∫„WCH\CH573_CH571\CH573EVT\EVT\EXAM\PWMX\obj/../src/Main.c:28
    GPIOA_ModeCfg(GPIO_Pin_13, GPIO_ModeOut_PP_5mA); // PA13 - PWM5
 718:	458d                	li	a1,3
 71a:	6509                	lui	a0,0x2
 71c:	28bd                	jal	79a <GPIOA_ModeCfg>
D:\DATA\Electronic\MCU&MPU&DSP\32bit\«ﬂ∫„WCH\CH573_CH571\CH573EVT\EVT\EXAM\PWMX\obj/../src/Main.c:29
    GPIOB_ModeCfg(GPIO_Pin_0, GPIO_ModeOut_PP_5mA);  // PB0 - PWM6
 71e:	458d                	li	a1,3
 720:	4505                	li	a0,1
 722:	2a39                	jal	840 <GPIOB_ModeCfg>
D:\DATA\Electronic\MCU&MPU&DSP\32bit\«ﬂ∫„WCH\CH573_CH571\CH573EVT\EVT\EXAM\PWMX\obj/../src/Main.c:30
    GPIOB_ModeCfg(GPIO_Pin_4, GPIO_ModeOut_PP_5mA);  // PB4 - PWM7
 724:	458d                	li	a1,3
 726:	4541                	li	a0,16
 728:	2a21                	jal	840 <GPIOB_ModeCfg>
D:\DATA\Electronic\MCU&MPU&DSP\32bit\«ﬂ∫„WCH\CH573_CH571\CH573EVT\EVT\EXAM\PWMX\obj/../src/Main.c:31
    GPIOB_ModeCfg(GPIO_Pin_6, GPIO_ModeOut_PP_5mA);  // PB6 - PWM8
 72a:	458d                	li	a1,3
 72c:	04000513          	li	a0,64
 730:	2a01                	jal	840 <GPIOB_ModeCfg>
D:\DATA\Electronic\MCU&MPU&DSP\32bit\«ﬂ∫„WCH\CH573_CH571\CH573EVT\EVT\EXAM\PWMX\obj/../src/Main.c:32
    GPIOB_ModeCfg(GPIO_Pin_7, GPIO_ModeOut_PP_5mA);  // PB7 - PWM9
 732:	458d                	li	a1,3
 734:	08000513          	li	a0,128
 738:	2221                	jal	840 <GPIOB_ModeCfg>
D:\DATA\Electronic\MCU&MPU&DSP\32bit\«ﬂ∫„WCH\CH573_CH571\CH573EVT\EVT\EXAM\PWMX\obj/../src/Main.c:33
    GPIOB_ModeCfg(GPIO_Pin_14, GPIO_ModeOut_PP_5mA); // PB14 - PWM10
 73a:	458d                	li	a1,3
 73c:	6511                	lui	a0,0x4
 73e:	2209                	jal	840 <GPIOB_ModeCfg>
D:\DATA\Electronic\MCU&MPU&DSP\32bit\«ﬂ∫„WCH\CH573_CH571\CH573EVT\EVT\EXAM\PWMX\obj/../src/Main.c:36
                                                     //  GPIOB_ModeCfg(GPIO_Pin_23, GPIO_ModeOut_PP_5mA); // PB23 - PWM11 ¥ÀΩ≈∏¥”√Œ™Õ‚≤ø∏¥ŒªΩ≈£¨–Ë“™πÿ±’¥Àπ¶ƒ‹≤≈ƒ‹ø™∆ÙPWMπ¶ƒ‹

    PWMX_CLKCfg(4);                                   // cycle = 4/Fsys
 740:	400057b7          	lui	a5,0x40005
 744:	4711                	li	a4,4
 746:	00e781a3          	sb	a4,3(a5) # 40005003 <_eusrstack+0x1fffd003>
D:\DATA\Electronic\MCU&MPU&DSP\32bit\«ﬂ∫„WCH\CH573_CH571\CH573EVT\EVT\EXAM\PWMX\obj/../src/Main.c:37
    PWMX_CycleCfg(PWMX_Cycle_64);                     // ÷‹∆⁄ = 64*cycle
 74a:	4511                	li	a0,4
 74c:	2a69                	jal	8e6 <PWMX_CycleCfg>
D:\DATA\Electronic\MCU&MPU&DSP\32bit\«ﬂ∫„WCH\CH573_CH571\CH573EVT\EVT\EXAM\PWMX\obj/../src/Main.c:38
    PWMX_ACTOUT(CH_PWM4, 64 / 4, Low_Level, ENABLE);  // 25% ’ºø’±»
 74e:	4685                	li	a3,1
 750:	4605                	li	a2,1
 752:	45c1                	li	a1,16
 754:	4505                	li	a0,1
 756:	2c31                	jal	972 <PWMX_ACTOUT>
D:\DATA\Electronic\MCU&MPU&DSP\32bit\«ﬂ∫„WCH\CH573_CH571\CH573EVT\EVT\EXAM\PWMX\obj/../src/Main.c:39
    PWMX_ACTOUT(CH_PWM5, 64 / 4, Low_Level, ENABLE);  // 25% ’ºø’±»
 758:	4685                	li	a3,1
 75a:	4605                	li	a2,1
 75c:	45c1                	li	a1,16
 75e:	4509                	li	a0,2
 760:	2c09                	jal	972 <PWMX_ACTOUT>
D:\DATA\Electronic\MCU&MPU&DSP\32bit\«ﬂ∫„WCH\CH573_CH571\CH573EVT\EVT\EXAM\PWMX\obj/../src/Main.c:40
    PWMX_ACTOUT(CH_PWM6, 64 / 4, Low_Level, ENABLE);  // 25% ’ºø’±»
 762:	4685                	li	a3,1
 764:	4605                	li	a2,1
 766:	45c1                	li	a1,16
 768:	4511                	li	a0,4
 76a:	2421                	jal	972 <PWMX_ACTOUT>
D:\DATA\Electronic\MCU&MPU&DSP\32bit\«ﬂ∫„WCH\CH573_CH571\CH573EVT\EVT\EXAM\PWMX\obj/../src/Main.c:41
    PWMX_ACTOUT(CH_PWM7, 64 / 4, Low_Level, ENABLE);  // 25% ’ºø’±»
 76c:	4685                	li	a3,1
 76e:	4605                	li	a2,1
 770:	45c1                	li	a1,16
 772:	4521                	li	a0,8
 774:	2afd                	jal	972 <PWMX_ACTOUT>
D:\DATA\Electronic\MCU&MPU&DSP\32bit\«ﬂ∫„WCH\CH573_CH571\CH573EVT\EVT\EXAM\PWMX\obj/../src/Main.c:42
    PWMX_ACTOUT(CH_PWM8, 64 / 4, Low_Level, ENABLE);  // 25% ’ºø’±»
 776:	4685                	li	a3,1
 778:	4605                	li	a2,1
 77a:	45c1                	li	a1,16
 77c:	4541                	li	a0,16
 77e:	2ad5                	jal	972 <PWMX_ACTOUT>
D:\DATA\Electronic\MCU&MPU&DSP\32bit\«ﬂ∫„WCH\CH573_CH571\CH573EVT\EVT\EXAM\PWMX\obj/../src/Main.c:43
    PWMX_ACTOUT(CH_PWM9, 64 / 4, Low_Level, ENABLE);  // 25% ’ºø’±»
 780:	4685                	li	a3,1
 782:	4605                	li	a2,1
 784:	45c1                	li	a1,16
 786:	02000513          	li	a0,32
 78a:	22e5                	jal	972 <PWMX_ACTOUT>
D:\DATA\Electronic\MCU&MPU&DSP\32bit\«ﬂ∫„WCH\CH573_CH571\CH573EVT\EVT\EXAM\PWMX\obj/../src/Main.c:44
    PWMX_ACTOUT(CH_PWM10, 64 / 4, Low_Level, ENABLE); // 25% ’ºø’±»
 78c:	4685                	li	a3,1
 78e:	4605                	li	a2,1
 790:	45c1                	li	a1,16
 792:	04000513          	li	a0,64
 796:	2af1                	jal	972 <PWMX_ACTOUT>
D:\DATA\Electronic\MCU&MPU&DSP\32bit\«ﬂ∫„WCH\CH573_CH571\CH573EVT\EVT\EXAM\PWMX\obj/../src/Main.c:46 (discriminator 1)

    while(1);
 798:	a001                	j	798 <main+0x96>

0000079a <GPIOA_ModeCfg>:
GPIOA_ModeCfg():
D:/DATA/Electronic/MCU&MPU&DSP/32bit/«ﬂ∫„WCH/CH573_CH571/CH573EVT/EVT/EXAM/SRC/StdPeriphDriver/CH57x_gpio.c:27
 *
 * @return  none
 */
void GPIOA_ModeCfg(uint32_t pin, GPIOModeTypeDef mode)
{
    switch(mode)
 79a:	4791                	li	a5,4
 79c:	02b7ee63          	bltu	a5,a1,7d8 <GPIOA_ModeCfg+0x3e>
 7a0:	00000717          	auipc	a4,0x0
 7a4:	23070713          	addi	a4,a4,560 # 9d0 <PWMX_ACTOUT+0x5e>
 7a8:	058a                	slli	a1,a1,0x2
 7aa:	95ba                	add	a1,a1,a4
 7ac:	419c                	lw	a5,0(a1)
 7ae:	97ba                	add	a5,a5,a4
 7b0:	8782                	jr	a5
D:/DATA/Electronic/MCU&MPU&DSP/32bit/«ﬂ∫„WCH/CH573_CH571/CH573EVT/EVT/EXAM/SRC/StdPeriphDriver/CH57x_gpio.c:30
    {
        case GPIO_ModeIN_Floating:
            R32_PA_PD_DRV &= ~pin;
 7b2:	400017b7          	lui	a5,0x40001
 7b6:	0b47a703          	lw	a4,180(a5) # 400010b4 <_eusrstack+0x1fff90b4>
 7ba:	fff54513          	not	a0,a0
 7be:	8f69                	and	a4,a4,a0
 7c0:	0ae7aa23          	sw	a4,180(a5)
D:/DATA/Electronic/MCU&MPU&DSP/32bit/«ﬂ∫„WCH/CH573_CH571/CH573EVT/EVT/EXAM/SRC/StdPeriphDriver/CH57x_gpio.c:31
            R32_PA_PU &= ~pin;
 7c4:	0b07a703          	lw	a4,176(a5)
D:/DATA/Electronic/MCU&MPU&DSP/32bit/«ﬂ∫„WCH/CH573_CH571/CH573EVT/EVT/EXAM/SRC/StdPeriphDriver/CH57x_gpio.c:43
            R32_PA_DIR &= ~pin;
            break;

        case GPIO_ModeIN_PD:
            R32_PA_PD_DRV |= pin;
            R32_PA_PU &= ~pin;
 7c8:	8f69                	and	a4,a4,a0
 7ca:	0ae7a823          	sw	a4,176(a5)
D:/DATA/Electronic/MCU&MPU&DSP/32bit/«ﬂ∫„WCH/CH573_CH571/CH573EVT/EVT/EXAM/SRC/StdPeriphDriver/CH57x_gpio.c:44
            R32_PA_DIR &= ~pin;
 7ce:	0a07a703          	lw	a4,160(a5)
 7d2:	8d79                	and	a0,a0,a4
D:/DATA/Electronic/MCU&MPU&DSP/32bit/«ﬂ∫„WCH/CH573_CH571/CH573EVT/EVT/EXAM/SRC/StdPeriphDriver/CH57x_gpio.c:54
            R32_PA_DIR |= pin;
            break;

        case GPIO_ModeOut_PP_20mA:
            R32_PA_PD_DRV |= pin;
            R32_PA_DIR |= pin;
 7d4:	0aa7a023          	sw	a0,160(a5)
D:/DATA/Electronic/MCU&MPU&DSP/32bit/«ﬂ∫„WCH/CH573_CH571/CH573EVT/EVT/EXAM/SRC/StdPeriphDriver/CH57x_gpio.c:60
            break;

        default:
            break;
    }
}
 7d8:	8082                	ret
D:/DATA/Electronic/MCU&MPU&DSP/32bit/«ﬂ∫„WCH/CH573_CH571/CH573EVT/EVT/EXAM/SRC/StdPeriphDriver/CH57x_gpio.c:36
            R32_PA_PD_DRV &= ~pin;
 7da:	400017b7          	lui	a5,0x40001
 7de:	0b47a683          	lw	a3,180(a5) # 400010b4 <_eusrstack+0x1fff90b4>
 7e2:	fff54713          	not	a4,a0
 7e6:	8ef9                	and	a3,a3,a4
 7e8:	0ad7aa23          	sw	a3,180(a5)
D:/DATA/Electronic/MCU&MPU&DSP/32bit/«ﬂ∫„WCH/CH573_CH571/CH573EVT/EVT/EXAM/SRC/StdPeriphDriver/CH57x_gpio.c:37
            R32_PA_PU |= pin;
 7ec:	0b07a683          	lw	a3,176(a5)
 7f0:	8d55                	or	a0,a0,a3
 7f2:	0aa7a823          	sw	a0,176(a5)
D:/DATA/Electronic/MCU&MPU&DSP/32bit/«ﬂ∫„WCH/CH573_CH571/CH573EVT/EVT/EXAM/SRC/StdPeriphDriver/CH57x_gpio.c:38
            R32_PA_DIR &= ~pin;
 7f6:	0a07a683          	lw	a3,160(a5)
 7fa:	8f75                	and	a4,a4,a3
 7fc:	0ae7a023          	sw	a4,160(a5)
D:/DATA/Electronic/MCU&MPU&DSP/32bit/«ﬂ∫„WCH/CH573_CH571/CH573EVT/EVT/EXAM/SRC/StdPeriphDriver/CH57x_gpio.c:39
            break;
 800:	8082                	ret
D:/DATA/Electronic/MCU&MPU&DSP/32bit/«ﬂ∫„WCH/CH573_CH571/CH573EVT/EVT/EXAM/SRC/StdPeriphDriver/CH57x_gpio.c:42
            R32_PA_PD_DRV |= pin;
 802:	400017b7          	lui	a5,0x40001
 806:	0b47a703          	lw	a4,180(a5) # 400010b4 <_eusrstack+0x1fff90b4>
 80a:	8f49                	or	a4,a4,a0
 80c:	0ae7aa23          	sw	a4,180(a5)
D:/DATA/Electronic/MCU&MPU&DSP/32bit/«ﬂ∫„WCH/CH573_CH571/CH573EVT/EVT/EXAM/SRC/StdPeriphDriver/CH57x_gpio.c:43
            R32_PA_PU &= ~pin;
 810:	0b07a703          	lw	a4,176(a5)
 814:	fff54513          	not	a0,a0
 818:	bf45                	j	7c8 <GPIOA_ModeCfg+0x2e>
D:/DATA/Electronic/MCU&MPU&DSP/32bit/«ﬂ∫„WCH/CH573_CH571/CH573EVT/EVT/EXAM/SRC/StdPeriphDriver/CH57x_gpio.c:48
            R32_PA_PD_DRV &= ~pin;
 81a:	400017b7          	lui	a5,0x40001
 81e:	0b47a683          	lw	a3,180(a5) # 400010b4 <_eusrstack+0x1fff90b4>
 822:	fff54713          	not	a4,a0
 826:	8f75                	and	a4,a4,a3
D:/DATA/Electronic/MCU&MPU&DSP/32bit/«ﬂ∫„WCH/CH573_CH571/CH573EVT/EVT/EXAM/SRC/StdPeriphDriver/CH57x_gpio.c:53
            R32_PA_PD_DRV |= pin;
 828:	0ae7aa23          	sw	a4,180(a5)
D:/DATA/Electronic/MCU&MPU&DSP/32bit/«ﬂ∫„WCH/CH573_CH571/CH573EVT/EVT/EXAM/SRC/StdPeriphDriver/CH57x_gpio.c:54
            R32_PA_DIR |= pin;
 82c:	0a07a703          	lw	a4,160(a5)
 830:	8d59                	or	a0,a0,a4
 832:	b74d                	j	7d4 <GPIOA_ModeCfg+0x3a>
D:/DATA/Electronic/MCU&MPU&DSP/32bit/«ﬂ∫„WCH/CH573_CH571/CH573EVT/EVT/EXAM/SRC/StdPeriphDriver/CH57x_gpio.c:53
            R32_PA_PD_DRV |= pin;
 834:	400017b7          	lui	a5,0x40001
 838:	0b47a703          	lw	a4,180(a5) # 400010b4 <_eusrstack+0x1fff90b4>
 83c:	8f49                	or	a4,a4,a0
 83e:	b7ed                	j	828 <GPIOA_ModeCfg+0x8e>

00000840 <GPIOB_ModeCfg>:
GPIOB_ModeCfg():
D:/DATA/Electronic/MCU&MPU&DSP/32bit/«ﬂ∫„WCH/CH573_CH571/CH573EVT/EVT/EXAM/SRC/StdPeriphDriver/CH57x_gpio.c:74
 *
 * @return  none
 */
void GPIOB_ModeCfg(uint32_t pin, GPIOModeTypeDef mode)
{
    switch(mode)
 840:	4791                	li	a5,4
 842:	02b7ee63          	bltu	a5,a1,87e <GPIOB_ModeCfg+0x3e>
 846:	00000717          	auipc	a4,0x0
 84a:	19e70713          	addi	a4,a4,414 # 9e4 <PWMX_ACTOUT+0x72>
 84e:	058a                	slli	a1,a1,0x2
 850:	95ba                	add	a1,a1,a4
 852:	419c                	lw	a5,0(a1)
 854:	97ba                	add	a5,a5,a4
 856:	8782                	jr	a5
D:/DATA/Electronic/MCU&MPU&DSP/32bit/«ﬂ∫„WCH/CH573_CH571/CH573EVT/EVT/EXAM/SRC/StdPeriphDriver/CH57x_gpio.c:77
    {
        case GPIO_ModeIN_Floating:
            R32_PB_PD_DRV &= ~pin;
 858:	400017b7          	lui	a5,0x40001
 85c:	0d47a703          	lw	a4,212(a5) # 400010d4 <_eusrstack+0x1fff90d4>
 860:	fff54513          	not	a0,a0
 864:	8f69                	and	a4,a4,a0
 866:	0ce7aa23          	sw	a4,212(a5)
D:/DATA/Electronic/MCU&MPU&DSP/32bit/«ﬂ∫„WCH/CH573_CH571/CH573EVT/EVT/EXAM/SRC/StdPeriphDriver/CH57x_gpio.c:78
            R32_PB_PU &= ~pin;
 86a:	0d07a703          	lw	a4,208(a5)
D:/DATA/Electronic/MCU&MPU&DSP/32bit/«ﬂ∫„WCH/CH573_CH571/CH573EVT/EVT/EXAM/SRC/StdPeriphDriver/CH57x_gpio.c:90
            R32_PB_DIR &= ~pin;
            break;

        case GPIO_ModeIN_PD:
            R32_PB_PD_DRV |= pin;
            R32_PB_PU &= ~pin;
 86e:	8f69                	and	a4,a4,a0
 870:	0ce7a823          	sw	a4,208(a5)
D:/DATA/Electronic/MCU&MPU&DSP/32bit/«ﬂ∫„WCH/CH573_CH571/CH573EVT/EVT/EXAM/SRC/StdPeriphDriver/CH57x_gpio.c:91
            R32_PB_DIR &= ~pin;
 874:	0c07a703          	lw	a4,192(a5)
 878:	8d79                	and	a0,a0,a4
D:/DATA/Electronic/MCU&MPU&DSP/32bit/«ﬂ∫„WCH/CH573_CH571/CH573EVT/EVT/EXAM/SRC/StdPeriphDriver/CH57x_gpio.c:101
            R32_PB_DIR |= pin;
            break;

        case GPIO_ModeOut_PP_20mA:
            R32_PB_PD_DRV |= pin;
            R32_PB_DIR |= pin;
 87a:	0ca7a023          	sw	a0,192(a5)
D:/DATA/Electronic/MCU&MPU&DSP/32bit/«ﬂ∫„WCH/CH573_CH571/CH573EVT/EVT/EXAM/SRC/StdPeriphDriver/CH57x_gpio.c:107
            break;

        default:
            break;
    }
}
 87e:	8082                	ret
D:/DATA/Electronic/MCU&MPU&DSP/32bit/«ﬂ∫„WCH/CH573_CH571/CH573EVT/EVT/EXAM/SRC/StdPeriphDriver/CH57x_gpio.c:83
            R32_PB_PD_DRV &= ~pin;
 880:	400017b7          	lui	a5,0x40001
 884:	0d47a683          	lw	a3,212(a5) # 400010d4 <_eusrstack+0x1fff90d4>
 888:	fff54713          	not	a4,a0
 88c:	8ef9                	and	a3,a3,a4
 88e:	0cd7aa23          	sw	a3,212(a5)
D:/DATA/Electronic/MCU&MPU&DSP/32bit/«ﬂ∫„WCH/CH573_CH571/CH573EVT/EVT/EXAM/SRC/StdPeriphDriver/CH57x_gpio.c:84
            R32_PB_PU |= pin;
 892:	0d07a683          	lw	a3,208(a5)
 896:	8d55                	or	a0,a0,a3
 898:	0ca7a823          	sw	a0,208(a5)
D:/DATA/Electronic/MCU&MPU&DSP/32bit/«ﬂ∫„WCH/CH573_CH571/CH573EVT/EVT/EXAM/SRC/StdPeriphDriver/CH57x_gpio.c:85
            R32_PB_DIR &= ~pin;
 89c:	0c07a683          	lw	a3,192(a5)
 8a0:	8f75                	and	a4,a4,a3
 8a2:	0ce7a023          	sw	a4,192(a5)
D:/DATA/Electronic/MCU&MPU&DSP/32bit/«ﬂ∫„WCH/CH573_CH571/CH573EVT/EVT/EXAM/SRC/StdPeriphDriver/CH57x_gpio.c:86
            break;
 8a6:	8082                	ret
D:/DATA/Electronic/MCU&MPU&DSP/32bit/«ﬂ∫„WCH/CH573_CH571/CH573EVT/EVT/EXAM/SRC/StdPeriphDriver/CH57x_gpio.c:89
            R32_PB_PD_DRV |= pin;
 8a8:	400017b7          	lui	a5,0x40001
 8ac:	0d47a703          	lw	a4,212(a5) # 400010d4 <_eusrstack+0x1fff90d4>
 8b0:	8f49                	or	a4,a4,a0
 8b2:	0ce7aa23          	sw	a4,212(a5)
D:/DATA/Electronic/MCU&MPU&DSP/32bit/«ﬂ∫„WCH/CH573_CH571/CH573EVT/EVT/EXAM/SRC/StdPeriphDriver/CH57x_gpio.c:90
            R32_PB_PU &= ~pin;
 8b6:	0d07a703          	lw	a4,208(a5)
 8ba:	fff54513          	not	a0,a0
 8be:	bf45                	j	86e <GPIOB_ModeCfg+0x2e>
D:/DATA/Electronic/MCU&MPU&DSP/32bit/«ﬂ∫„WCH/CH573_CH571/CH573EVT/EVT/EXAM/SRC/StdPeriphDriver/CH57x_gpio.c:95
            R32_PB_PD_DRV &= ~pin;
 8c0:	400017b7          	lui	a5,0x40001
 8c4:	0d47a683          	lw	a3,212(a5) # 400010d4 <_eusrstack+0x1fff90d4>
 8c8:	fff54713          	not	a4,a0
 8cc:	8f75                	and	a4,a4,a3
D:/DATA/Electronic/MCU&MPU&DSP/32bit/«ﬂ∫„WCH/CH573_CH571/CH573EVT/EVT/EXAM/SRC/StdPeriphDriver/CH57x_gpio.c:100
            R32_PB_PD_DRV |= pin;
 8ce:	0ce7aa23          	sw	a4,212(a5)
D:/DATA/Electronic/MCU&MPU&DSP/32bit/«ﬂ∫„WCH/CH573_CH571/CH573EVT/EVT/EXAM/SRC/StdPeriphDriver/CH57x_gpio.c:101
            R32_PB_DIR |= pin;
 8d2:	0c07a703          	lw	a4,192(a5)
 8d6:	8d59                	or	a0,a0,a4
 8d8:	b74d                	j	87a <GPIOB_ModeCfg+0x3a>
D:/DATA/Electronic/MCU&MPU&DSP/32bit/«ﬂ∫„WCH/CH573_CH571/CH573EVT/EVT/EXAM/SRC/StdPeriphDriver/CH57x_gpio.c:100
            R32_PB_PD_DRV |= pin;
 8da:	400017b7          	lui	a5,0x40001
 8de:	0d47a703          	lw	a4,212(a5) # 400010d4 <_eusrstack+0x1fff90d4>
 8e2:	8f49                	or	a4,a4,a0
 8e4:	b7ed                	j	8ce <GPIOB_ModeCfg+0x8e>

000008e6 <PWMX_CycleCfg>:
PWMX_CycleCfg():
D:/DATA/Electronic/MCU&MPU&DSP/32bit/«ﬂ∫„WCH/CH573_CH571/CH573EVT/EVT/EXAM/SRC/StdPeriphDriver/CH57x_pwm.c:26
 *
 * @return  none
 */
void PWMX_CycleCfg(PWMX_CycleTypeDef cyc)
{
    switch(cyc)
 8e6:	479d                	li	a5,7
 8e8:	02a7e363          	bltu	a5,a0,90e <PWMX_CycleCfg+0x28>
 8ec:	00000717          	auipc	a4,0x0
 8f0:	10c70713          	addi	a4,a4,268 # 9f8 <PWMX_ACTOUT+0x86>
 8f4:	050a                	slli	a0,a0,0x2
 8f6:	953a                	add	a0,a0,a4
 8f8:	411c                	lw	a5,0(a0)
 8fa:	97ba                	add	a5,a5,a4
D:/DATA/Electronic/MCU&MPU&DSP/32bit/«ﬂ∫„WCH/CH573_CH571/CH573EVT/EVT/EXAM/SRC/StdPeriphDriver/CH57x_pwm.c:57
        case PWMX_Cycle_32:
            R8_PWM_CONFIG = (R8_PWM_CONFIG & 0xf0) | (3 << 2);
            break;

        case PWMX_Cycle_31:
            R8_PWM_CONFIG = (R8_PWM_CONFIG & 0xf0) | (3 << 2) | 0x01;
 8fc:	40005737          	lui	a4,0x40005
D:/DATA/Electronic/MCU&MPU&DSP/32bit/«ﬂ∫„WCH/CH573_CH571/CH573EVT/EVT/EXAM/SRC/StdPeriphDriver/CH57x_pwm.c:26
    switch(cyc)
 900:	8782                	jr	a5
D:/DATA/Electronic/MCU&MPU&DSP/32bit/«ﬂ∫„WCH/CH573_CH571/CH573EVT/EVT/EXAM/SRC/StdPeriphDriver/CH57x_pwm.c:29
            R8_PWM_CONFIG = R8_PWM_CONFIG & 0xf0;
 902:	00274783          	lbu	a5,2(a4) # 40005002 <_eusrstack+0x1fffd002>
 906:	0f07f793          	andi	a5,a5,240
D:/DATA/Electronic/MCU&MPU&DSP/32bit/«ﬂ∫„WCH/CH573_CH571/CH573EVT/EVT/EXAM/SRC/StdPeriphDriver/CH57x_pwm.c:57
            R8_PWM_CONFIG = (R8_PWM_CONFIG & 0xf0) | (3 << 2) | 0x01;
 90a:	00f70123          	sb	a5,2(a4)
D:/DATA/Electronic/MCU&MPU&DSP/32bit/«ﬂ∫„WCH/CH573_CH571/CH573EVT/EVT/EXAM/SRC/StdPeriphDriver/CH57x_pwm.c:63
            break;

        default:
            break;
    }
}
 90e:	8082                	ret
D:/DATA/Electronic/MCU&MPU&DSP/32bit/«ﬂ∫„WCH/CH573_CH571/CH573EVT/EVT/EXAM/SRC/StdPeriphDriver/CH57x_pwm.c:33
            R8_PWM_CONFIG = (R8_PWM_CONFIG & 0xf0) | 0x01;
 910:	00274783          	lbu	a5,2(a4)
 914:	0f07f793          	andi	a5,a5,240
 918:	0017e793          	ori	a5,a5,1
 91c:	b7fd                	j	90a <PWMX_CycleCfg+0x24>
D:/DATA/Electronic/MCU&MPU&DSP/32bit/«ﬂ∫„WCH/CH573_CH571/CH573EVT/EVT/EXAM/SRC/StdPeriphDriver/CH57x_pwm.c:37
            R8_PWM_CONFIG = (R8_PWM_CONFIG & 0xf0) | (1 << 2);
 91e:	00274783          	lbu	a5,2(a4)
 922:	0f07f793          	andi	a5,a5,240
 926:	0047e793          	ori	a5,a5,4
 92a:	b7c5                	j	90a <PWMX_CycleCfg+0x24>
D:/DATA/Electronic/MCU&MPU&DSP/32bit/«ﬂ∫„WCH/CH573_CH571/CH573EVT/EVT/EXAM/SRC/StdPeriphDriver/CH57x_pwm.c:41
            R8_PWM_CONFIG = (R8_PWM_CONFIG & 0xf0) | (1 << 2) | 0x01;
 92c:	00274783          	lbu	a5,2(a4)
 930:	0f07f793          	andi	a5,a5,240
 934:	0057e793          	ori	a5,a5,5
 938:	bfc9                	j	90a <PWMX_CycleCfg+0x24>
D:/DATA/Electronic/MCU&MPU&DSP/32bit/«ﬂ∫„WCH/CH573_CH571/CH573EVT/EVT/EXAM/SRC/StdPeriphDriver/CH57x_pwm.c:45
            R8_PWM_CONFIG = (R8_PWM_CONFIG & 0xf0) | (2 << 2);
 93a:	00274783          	lbu	a5,2(a4)
 93e:	0f07f793          	andi	a5,a5,240
 942:	0087e793          	ori	a5,a5,8
 946:	b7d1                	j	90a <PWMX_CycleCfg+0x24>
D:/DATA/Electronic/MCU&MPU&DSP/32bit/«ﬂ∫„WCH/CH573_CH571/CH573EVT/EVT/EXAM/SRC/StdPeriphDriver/CH57x_pwm.c:49
            R8_PWM_CONFIG = (R8_PWM_CONFIG & 0xf0) | (2 << 2) | 0x01;
 948:	00274783          	lbu	a5,2(a4)
 94c:	0f07f793          	andi	a5,a5,240
 950:	0097e793          	ori	a5,a5,9
 954:	bf5d                	j	90a <PWMX_CycleCfg+0x24>
D:/DATA/Electronic/MCU&MPU&DSP/32bit/«ﬂ∫„WCH/CH573_CH571/CH573EVT/EVT/EXAM/SRC/StdPeriphDriver/CH57x_pwm.c:53
            R8_PWM_CONFIG = (R8_PWM_CONFIG & 0xf0) | (3 << 2);
 956:	00274783          	lbu	a5,2(a4)
 95a:	0f07f793          	andi	a5,a5,240
 95e:	00c7e793          	ori	a5,a5,12
 962:	b765                	j	90a <PWMX_CycleCfg+0x24>
D:/DATA/Electronic/MCU&MPU&DSP/32bit/«ﬂ∫„WCH/CH573_CH571/CH573EVT/EVT/EXAM/SRC/StdPeriphDriver/CH57x_pwm.c:57
            R8_PWM_CONFIG = (R8_PWM_CONFIG & 0xf0) | (3 << 2) | 0x01;
 964:	00274783          	lbu	a5,2(a4)
 968:	0f07f793          	andi	a5,a5,240
 96c:	00d7e793          	ori	a5,a5,13
 970:	bf69                	j	90a <PWMX_CycleCfg+0x24>

00000972 <PWMX_ACTOUT>:
PWMX_ACTOUT():
D:/DATA/Electronic/MCU&MPU&DSP/32bit/«ﬂ∫„WCH/CH573_CH571/CH573EVT/EVT/EXAM/SRC/StdPeriphDriver/CH57x_pwm.c:81
 */
void PWMX_ACTOUT(uint8_t ch, uint8_t da, PWMX_PolarTypeDef pr, FunctionalState s)
{
    uint8_t i;

    if(s == DISABLE)
 972:	ea99                	bnez	a3,988 <PWMX_ACTOUT+0x16>
D:/DATA/Electronic/MCU&MPU&DSP/32bit/«ﬂ∫„WCH/CH573_CH571/CH573EVT/EVT/EXAM/SRC/StdPeriphDriver/CH57x_pwm.c:83
    {
        R8_PWM_OUT_EN &= ~(ch);
 974:	400057b7          	lui	a5,0x40005
 978:	0007c703          	lbu	a4,0(a5) # 40005000 <_eusrstack+0x1fffd000>
 97c:	fff54513          	not	a0,a0
 980:	8d79                	and	a0,a0,a4
D:/DATA/Electronic/MCU&MPU&DSP/32bit/«ﬂ∫„WCH/CH573_CH571/CH573EVT/EVT/EXAM/SRC/StdPeriphDriver/CH57x_pwm.c:95
            if((ch >> i) & 1)
            {
                *((volatile uint8_t *)((&R8_PWM4_DATA) + i)) = da;
            }
        }
        R8_PWM_OUT_EN |= (ch);
 982:	00a78023          	sb	a0,0(a5)
D:/DATA/Electronic/MCU&MPU&DSP/32bit/«ﬂ∫„WCH/CH573_CH571/CH573EVT/EVT/EXAM/SRC/StdPeriphDriver/CH57x_pwm.c:97
    }
}
 986:	8082                	ret
D:/DATA/Electronic/MCU&MPU&DSP/32bit/«ﬂ∫„WCH/CH573_CH571/CH573EVT/EVT/EXAM/SRC/StdPeriphDriver/CH57x_pwm.c:87
        (pr) ? (R8_PWM_POLAR |= (ch)) : (R8_PWM_POLAR &= ~(ch));
 988:	40005737          	lui	a4,0x40005
 98c:	ce05                	beqz	a2,9c4 <PWMX_ACTOUT+0x52>
D:/DATA/Electronic/MCU&MPU&DSP/32bit/«ﬂ∫„WCH/CH573_CH571/CH573EVT/EVT/EXAM/SRC/StdPeriphDriver/CH57x_pwm.c:87 (discriminator 1)
 98e:	00174783          	lbu	a5,1(a4) # 40005001 <_eusrstack+0x1fffd001>
 992:	8fc9                	or	a5,a5,a0
 994:	00f700a3          	sb	a5,1(a4)
 998:	40005737          	lui	a4,0x40005
D:/DATA/Electronic/MCU&MPU&DSP/32bit/«ﬂ∫„WCH/CH573_CH571/CH573EVT/EVT/EXAM/SRC/StdPeriphDriver/CH57x_pwm.c:78 (discriminator 1)
{
 99c:	4781                	li	a5,0
 99e:	0711                	addi	a4,a4,4
D:/DATA/Electronic/MCU&MPU&DSP/32bit/«ﬂ∫„WCH/CH573_CH571/CH573EVT/EVT/EXAM/SRC/StdPeriphDriver/CH57x_pwm.c:88 (discriminator 1)
        for(i = 0; i < 8; i++)
 9a0:	4621                	li	a2,8
D:/DATA/Electronic/MCU&MPU&DSP/32bit/«ﬂ∫„WCH/CH573_CH571/CH573EVT/EVT/EXAM/SRC/StdPeriphDriver/CH57x_pwm.c:90
            if((ch >> i) & 1)
 9a2:	40f556b3          	sra	a3,a0,a5
 9a6:	8a85                	andi	a3,a3,1
 9a8:	c689                	beqz	a3,9b2 <PWMX_ACTOUT+0x40>
D:/DATA/Electronic/MCU&MPU&DSP/32bit/«ﬂ∫„WCH/CH573_CH571/CH573EVT/EVT/EXAM/SRC/StdPeriphDriver/CH57x_pwm.c:92
                *((volatile uint8_t *)((&R8_PWM4_DATA) + i)) = da;
 9aa:	00e786b3          	add	a3,a5,a4
 9ae:	00b68023          	sb	a1,0(a3)
 9b2:	0785                	addi	a5,a5,1
D:/DATA/Electronic/MCU&MPU&DSP/32bit/«ﬂ∫„WCH/CH573_CH571/CH573EVT/EVT/EXAM/SRC/StdPeriphDriver/CH57x_pwm.c:88 (discriminator 2)
        for(i = 0; i < 8; i++)
 9b4:	fec797e3          	bne	a5,a2,9a2 <PWMX_ACTOUT+0x30>
D:/DATA/Electronic/MCU&MPU&DSP/32bit/«ﬂ∫„WCH/CH573_CH571/CH573EVT/EVT/EXAM/SRC/StdPeriphDriver/CH57x_pwm.c:95
        R8_PWM_OUT_EN |= (ch);
 9b8:	400057b7          	lui	a5,0x40005
 9bc:	0007c703          	lbu	a4,0(a5) # 40005000 <_eusrstack+0x1fffd000>
 9c0:	8d59                	or	a0,a0,a4
 9c2:	b7c1                	j	982 <PWMX_ACTOUT+0x10>
D:/DATA/Electronic/MCU&MPU&DSP/32bit/«ﬂ∫„WCH/CH573_CH571/CH573EVT/EVT/EXAM/SRC/StdPeriphDriver/CH57x_pwm.c:87 (discriminator 2)
        (pr) ? (R8_PWM_POLAR |= (ch)) : (R8_PWM_POLAR &= ~(ch));
 9c4:	00174683          	lbu	a3,1(a4) # 40005001 <_eusrstack+0x1fffd001>
 9c8:	fff54793          	not	a5,a0
 9cc:	8ff5                	and	a5,a5,a3
 9ce:	b7d9                	j	994 <PWMX_ACTOUT+0x22>
 9d0:	fde2                	fsw	fs8,248(sp)
 9d2:	ffff                	0xffff
 9d4:	fe0a                	fsw	ft2,60(sp)
 9d6:	ffff                	0xffff
 9d8:	fe32                	fsw	fa2,60(sp)
 9da:	ffff                	0xffff
 9dc:	fe4a                	fsw	fs2,60(sp)
 9de:	ffff                	0xffff
 9e0:	fe64                	fsw	fs1,124(a2)
 9e2:	ffff                	0xffff
 9e4:	fe74                	fsw	fa3,124(a2)
 9e6:	ffff                	0xffff
 9e8:	fe9c                	fsw	fa5,56(a3)
 9ea:	ffff                	0xffff
 9ec:	fec4                	fsw	fs1,60(a3)
 9ee:	ffff                	0xffff
 9f0:	fedc                	fsw	fa5,60(a3)
 9f2:	ffff                	0xffff
 9f4:	fef6                	fsw	ft9,124(sp)
 9f6:	ffff                	0xffff
 9f8:	ff0a                	fsw	ft2,188(sp)
 9fa:	ffff                	0xffff
 9fc:	ff18                	fsw	fa4,56(a4)
 9fe:	ffff                	0xffff
 a00:	ff26                	fsw	fs1,188(sp)
 a02:	ffff                	0xffff
 a04:	ff34                	fsw	fa3,120(a4)
 a06:	ffff                	0xffff
 a08:	ff42                	fsw	fa6,188(sp)
 a0a:	ffff                	0xffff
 a0c:	ff50                	fsw	fa2,60(a4)
 a0e:	ffff                	0xffff
 a10:	ff5e                	fsw	fs7,188(sp)
 a12:	ffff                	0xffff
 a14:	ff6c                	fsw	fa1,124(a4)
 a16:	ffff                	0xffff
