
TMR.elf:     file format elf32-littleriscv
TMR.elf
architecture: riscv:rv32, flags 0x00000112:
EXEC_P, HAS_SYMS, D_PAGED
start address 0x00000000

Program Header:
    LOAD off    0x00001000 vaddr 0x00000000 paddr 0x00000000 align 2**12
         filesz 0x00000004 memsz 0x00000004 flags r-x
    LOAD off    0x00001800 vaddr 0x20003800 paddr 0x00000004 align 2**12
         filesz 0x000006d8 memsz 0x000006d8 flags r-x
    LOAD off    0x000026dc vaddr 0x000006dc paddr 0x000006dc align 2**12
         filesz 0x00001a14 memsz 0x00001a14 flags r-x
    LOAD off    0x00004ed8 vaddr 0x20003ed8 paddr 0x000020f0 align 2**12
         filesz 0x00000000 memsz 0x00000128 flags rw-
    LOAD off    0x00005000 vaddr 0x20004000 paddr 0x000020f0 align 2**12
         filesz 0x00000068 memsz 0x0000020c flags rw-

Sections:
Idx Name            Size      VMA       LMA       File off  Algn  Flags
  0 .init           00000004  00000000  00000000  00001000  2**1  CONTENTS, ALLOC, LOAD, READONLY, CODE
  1 .highcodelalign 00000000  00000004  00000004  00005068  2**0  CONTENTS
  2 .highcode       000006d8  20003800  00000004  00001800  2**1  CONTENTS, ALLOC, LOAD, READONLY, CODE
  3 .text           00001a14  000006dc  000006dc  000026dc  2**2  CONTENTS, ALLOC, LOAD, READONLY, CODE
  4 .fini           00000000  000020f0  000020f0  00005068  2**0  CONTENTS, ALLOC, LOAD, CODE
  5 .dalign         00000128  20003ed8  000020f0  00004ed8  2**0  ALLOC
  6 .dlalign        00000000  000020f0  000020f0  00005068  2**0  CONTENTS
  7 .data           00000068  20004000  000020f0  00005000  2**2  CONTENTS, ALLOC, LOAD, DATA
  8 .bss            000001a4  20004068  00002158  00005068  2**2  ALLOC
  9 .stack          00000000  20008000  20008000  00005068  2**0  CONTENTS
 10 .debug_info     00008cba  00000000  00000000  00005068  2**0  CONTENTS, READONLY, DEBUGGING
 11 .debug_abbrev   00001879  00000000  00000000  0000dd22  2**0  CONTENTS, READONLY, DEBUGGING
 12 .debug_loc      00000d1c  00000000  00000000  0000f59b  2**0  CONTENTS, READONLY, DEBUGGING
 13 .debug_aranges  000002e8  00000000  00000000  000102b8  2**3  CONTENTS, READONLY, DEBUGGING
 14 .debug_ranges   000002d8  00000000  00000000  000105a0  2**3  CONTENTS, READONLY, DEBUGGING
 15 .debug_line     00004ae0  00000000  00000000  00010878  2**0  CONTENTS, READONLY, DEBUGGING
 16 .debug_str      000015e2  00000000  00000000  00015358  2**0  CONTENTS, READONLY, DEBUGGING
 17 .comment        00000033  00000000  00000000  0001693a  2**0  CONTENTS, READONLY
 18 .debug_frame    00000ee0  00000000  00000000  00016970  2**2  CONTENTS, READONLY, DEBUGGING
 19 .stab           00000084  00000000  00000000  00017850  2**2  CONTENTS, READONLY, DEBUGGING
 20 .stabstr        00000117  00000000  00000000  000178d4  2**0  CONTENTS, READONLY, DEBUGGING
SYMBOL TABLE:
00000000 l    d  .init	00000000 .init
00000004 l    d  .highcodelalign	00000000 .highcodelalign
20003800 l    d  .highcode	00000000 .highcode
000006dc l    d  .text	00000000 .text
000020f0 l    d  .fini	00000000 .fini
20003ed8 l    d  .dalign	00000000 .dalign
000020f0 l    d  .dlalign	00000000 .dlalign
20004000 l    d  .data	00000000 .data
20004068 l    d  .bss	00000000 .bss
20008000 l    d  .stack	00000000 .stack
00000000 l    d  .debug_info	00000000 .debug_info
00000000 l    d  .debug_abbrev	00000000 .debug_abbrev
00000000 l    d  .debug_loc	00000000 .debug_loc
00000000 l    d  .debug_aranges	00000000 .debug_aranges
00000000 l    d  .debug_ranges	00000000 .debug_ranges
00000000 l    d  .debug_line	00000000 .debug_line
00000000 l    d  .debug_str	00000000 .debug_str
00000000 l    d  .comment	00000000 .comment
00000000 l    d  .debug_frame	00000000 .debug_frame
00000000 l    d  .stab	00000000 .stab
00000000 l    d  .stabstr	00000000 .stabstr
00000000 l    df *ABS*	00000000 ./Startup/startup_CH573.o
20003800 l       .highcode	00000000 _vector_base
00000000 l    df *ABS*	00000000 Main.c
00000000 l    df *ABS*	00000000 CH57x_sys.c
00000000 l    df *ABS*	00000000 ISP573.c
20003afc l       .highcode	00000000 .loop18
20003b0a l       .highcode	00000000 .loop29
20003b18 l       .highcode	00000000 .loop40
20003d98 l       .highcode	00000000 .loop401
00000000 l    df *ABS*	00000000 CH57x_gpio.c
00000000 l    df *ABS*	00000000 CH57x_pwr.c
00000000 l    df *ABS*	00000000 CH57x_timer0.c
00000000 l    df *ABS*	00000000 CH57x_timer1.c
00000000 l    df *ABS*	00000000 CH57x_timer2.c
00000000 l    df *ABS*	00000000 CH57x_timer3.c
00000000 l    df *ABS*	00000000 CH57x_uart1.c
00000000 l    df *ABS*	00000000 printf.c
00000000 l    df *ABS*	00000000 putchar.c
00000000 l    df *ABS*	00000000 puts.c
00000000 l    df *ABS*	00000000 wbuf.c
00000000 l    df *ABS*	00000000 wsetup.c
00000000 l    df *ABS*	00000000 fflush.c
00000000 l    df *ABS*	00000000 findfp.c
000011b8 l     F .text	0000006a std
00000000 l    df *ABS*	00000000 fwalk.c
00000000 l    df *ABS*	00000000 makebuf.c
00000000 l    df *ABS*	00000000 nano-mallocr.c
00000000 l    df *ABS*	00000000 nano-mallocr.c
00000000 l    df *ABS*	00000000 nano-vfprintf.c
00001660 l     F .text	0000002a __sfputc_r
00000000 l    df *ABS*	00000000 nano-vfprintf_i.c
00000000 l    df *ABS*	00000000 putc.c
00000000 l    df *ABS*	00000000 sbrkr.c
00000000 l    df *ABS*	00000000 stdio.c
00000000 l    df *ABS*	00000000 writer.c
00000000 l    df *ABS*	00000000 closer.c
00000000 l    df *ABS*	00000000 fstatr.c
00000000 l    df *ABS*	00000000 isattyr.c
00000000 l    df *ABS*	00000000 lseekr.c
00000000 l    df *ABS*	00000000 memchr.c
00000000 l    df *ABS*	00000000 mlock.c
00000000 l    df *ABS*	00000000 readr.c
00000000 l    df *ABS*	00000000 close.c
00000000 l    df *ABS*	00000000 fstat.c
00000000 l    df *ABS*	00000000 isatty.c
00000000 l    df *ABS*	00000000 lseek.c
00000000 l    df *ABS*	00000000 read.c
00000000 l    df *ABS*	00000000 sbrk.c
20004074 l     O .bss	00000004 heap_end.1518
00000000 l    df *ABS*	00000000 impure.c
20004000 l     O .data	00000060 impure_data
00000000 l    df *ABS*	00000000 reent.c
00000d32 g     F .text	0000002e putchar
00001f02 g     F .text	00000028 _isatty_r
00000d60 g     F .text	000000da _puts_r
00001f2a g     F .text	0000002c _lseek_r
20003b18 g     F .highcode	0000000e FLASH_ROM_OUT
00000cee g     F .text	00000044 printf
20004860 g       .data	00000000 __global_pointer$
00001e46 g     F .text	00000036 __sseek
00001272 g     F .text	0000006a __sinit
00000e48 g     F .text	000000c0 __swbuf_r
20003ab4 g     F .highcode	0000000e mDelayuS
20003a76  w    F .highcode	0000003e HardFault_Handler
0000122c g     F .text	00000046 __sfmoreglue
2000389c  w      .highcode	00000000 GPIOB_IRQHandler
00001f72 g     F .text	00000002 __malloc_unlock
00000c20 g     F .text	0000001a TMR1_CapInit
2000389a  w      .highcode	00000000 GPIOA_IRQHandler
20003894  w      .highcode	00000000 SysTick_Handler
20003890  w      .highcode	00000000 NMI_Handler
200038ac  w      .highcode	00000000 UART1_IRQHandler
00001ed8 g     F .text	0000002a _fstat_r
20004208 g     O .bss	00000004 errno
20004068 g       .bss	00000000 _sbss
20003b0a g     F .highcode	0000000e FLASH_ROM_IN
00000c3a g     F .text	00000020 TMR1_DMACfg
200038aa  w      .highcode	00000000 UART0_IRQHandler
00001222 g     F .text	0000000a _cleanup_r
00000e3a g     F .text	0000000e puts
00001fac g     F .text	0000000c _fstat
00000004 g       .init	00000000 _einit
20004078 g     O .bss	00000190 CapBuf
200038a0  w      .highcode	00000000 BB_IRQHandler
20003ba6 g     F .highcode	00000332 FLASH_EEPROM_CMD
00000a86 g     F .text	000000a6 GPIOB_ModeCfg
00001da0 g     F .text	00000028 _sbrk_r
200038bc g     F .highcode	00000026 TMR0_IRQHandler
00001f74 g     F .text	0000002c _read_r
20003aea g     F .highcode	00000012 FLASH_ROM_BEG
20003ac2 g     F .highcode	00000028 mDelaymS
00001fb8 g     F .text	0000000c _isatty
000020ec g     O .text	00000004 _global_impure_ptr
20003b26 g     F .highcode	00000048 FLASH_ROM_ADDR
00001fdc g     F .text	00000020 _sbrk
200038ae  w      .highcode	00000000 RTC_IRQHandler
2000420c g       .bss	00000000 _ebss
00000cbc g     F .text	00000032 UART1_DefInit
20003b6e g     F .highcode	00000038 FLASH_ROM_WAIT
00001d1a g     F .text	00000086 _putc_r
00002050 g     O .text	00000020 __sf_fake_stderr
2000420c g       .bss	00000000 end
200038b6  w      .highcode	00000000 UART2_IRQHandler
200038b2  w      .highcode	00000000 PWMX_IRQHandler
0000168a g     F .text	00000042 __sfputs_r
00001f56 g     F .text	0000001a memchr
000014e0 g     F .text	000000a8 _free_r
00000822 g     F .text	0000002a DebugInit
00000000 g       .init	00000000 _start
00001fc4 g     F .text	0000000c _lseek
200038b0  w      .highcode	00000000 ADC_IRQHandler
20003800 g       .highcode	00000000 _highcode_vma_start
00000c5a g     F .text	0000001a TMR2_EXTSingleCounterInit
2000390a g     F .highcode	00000038 TMR2_IRQHandler
00001eb0 g     F .text	00000028 _close_r
20004000 g       .data	00000000 _data_vma
20003942 g     F .highcode	000000fc SetSysClock
200038a4  w      .highcode	00000000 USB_IRQHandler
00000f08 g     F .text	00000110 __swsetup_r
000012dc g     F .text	000000a0 __sfp
00001dc8 g     F .text	00000030 __sread
00001f70 g     F .text	00000002 __malloc_lock
00001154 g     F .text	00000064 _fflush_r
00002070 g     O .text	00000020 __sf_fake_stdin
00000b2c g     F .text	0000001a GPIOPinRemap
0000077a g     F .text	000000a8 memset
0000084c g     F .text	00000194 main
00001e7c g     F .text	00000006 __sclose
00000b46 g     F .text	0000005c PWR_UnitModCfg
00001588 g     F .text	000000d8 _malloc_r
00000004 g       .highcodelalign	00000000 _highcode_lma
00000cee g     F .text	00000044 iprintf
200038a2  w      .highcode	00000000 LLE_IRQHandler
00000000 g       .init	00000000 _sinit
00001e82 g     F .text	0000002e _write_r
00001966 g     F .text	0000010c _printf_common
20004060 g     O .data	00000004 _impure_ptr
00001018 g     F .text	0000013c __sflush_r
200038ba  w      .highcode	00000000 WDOG_BAT_IRQHandler
200038b4  w      .highcode	00000000 TMR3_IRQHandler
20008000 g       .stack	00000000 _eusrstack
20003896  w      .highcode	00000000 SW_Handler
000009e0 g     F .text	000000a6 GPIOA_ModeCfg
000013e8 g     F .text	0000005a __swhatbuf_r
00000ba2 g     F .text	00000042 GetSysClock
00000be4 g     F .text	00000028 _write
20004068 g       .data	00000000 _edata
2000389e  w      .highcode	00000000 SPI0_IRQHandler
20003ed8 g       .highcode	00000000 _highcode_vma_end
00000c74 g     F .text	00000018 TMR3_PWMInit
000020f0 g       .dlalign	00000000 _data_lma
00001df8 g     F .text	0000004e __swrite
20004068 g     O .bss	00000001 capFlag
000016cc g     F .text	0000029a _vfiprintf_r
0000137c g     F .text	0000006c _fwalk_reent
00002090 g     O .text	00000020 __sf_fake_stdout
00001fd0 g     F .text	0000000c _read
000006dc  w      .text	00000000 handle_reset
00001442 g     F .text	0000009e __smakebuf_r
00001a72 g     F .text	000002a8 _printf_i
200038b8  w      .highcode	00000000 UART3_IRQHandler
20004070 g     O .bss	00000004 __malloc_sbrk_start
20003afc g     F .highcode	0000000e FLASH_ROM_END
2000406c g     O .bss	00000004 __malloc_free_list
000016cc g     F .text	0000029a _vfprintf_r
200038e2 g     F .highcode	00000028 TMR1_IRQHandler
20003a3e g     F .highcode	00000038 SYS_ResetExecute
00001fa0 g     F .text	0000000c _close
00000c0c g     F .text	00000014 TMR0_TimerInit
00000c8c g     F .text	00000030 UART1_BaudRateCfg



Disassembly of section .init:

00000000 <_sinit>:
_start():
D:/DATA/Electronic/MCU&MPU&DSP/32bit/«ﬂ∫„WCH/CH573_CH571/CH573EVT/EVT/EXAM/SRC/Startup/startup_CH573.S:17

	.section	.init,"ax",@progbits
	.global	_start
	.align	1
_start:
	j	handle_reset
   0:	6dc0006f          	j	6dc <handle_reset>

Disassembly of section .highcode:

20003800 <_highcode_vma_start>:
	...
_vector_base():
D:/DATA/Electronic/MCU&MPU&DSP/32bit/«ﬂ∫„WCH/CH573_CH571/CH573EVT/EVT/EXAM/SRC/Startup/startup_CH573.S:25
    .align  1
_vector_base:
    .option norvc;
    .word   0
    .word   0
        j   NMI_Handler                 /* NMI Handler */
20003808:	0880006f          	j	20003890 <NMI_Handler>
D:/DATA/Electronic/MCU&MPU&DSP/32bit/«ﬂ∫„WCH/CH573_CH571/CH573EVT/EVT/EXAM/SRC/Startup/startup_CH573.S:26
        j   HardFault_Handler           /* Hard Fault Handler */
2000380c:	26a0006f          	j	20003a76 <HardFault_Handler>
	...
D:/DATA/Electronic/MCU&MPU&DSP/32bit/«ﬂ∫„WCH/CH573_CH571/CH573EVT/EVT/EXAM/SRC/Startup/startup_CH573.S:35
    .word   0
    .word   0
    .word   0
    .word   0
    .word   0
        j   SysTick_Handler            /* SysTick Handler */
20003830:	0640006f          	j	20003894 <SysTick_Handler>
20003834:	0000                	unimp
20003836:	0000                	unimp
D:/DATA/Electronic/MCU&MPU&DSP/32bit/«ﬂ∫„WCH/CH573_CH571/CH573EVT/EVT/EXAM/SRC/Startup/startup_CH573.S:37
    .word   0
        j   SW_Handler                 /* SW Handler */
20003838:	05e0006f          	j	20003896 <SW_Handler>
2000383c:	0000                	unimp
2000383e:	0000                	unimp
D:/DATA/Electronic/MCU&MPU&DSP/32bit/«ﬂ∫„WCH/CH573_CH571/CH573EVT/EVT/EXAM/SRC/Startup/startup_CH573.S:40
    .word   0
    /* External Interrupts */
        j   TMR0_IRQHandler            /* 0:  TMR0 */
20003840:	07c0006f          	j	200038bc <TMR0_IRQHandler>
D:/DATA/Electronic/MCU&MPU&DSP/32bit/«ﬂ∫„WCH/CH573_CH571/CH573EVT/EVT/EXAM/SRC/Startup/startup_CH573.S:41
        j   GPIOA_IRQHandler           /* GPIOA */
20003844:	0560006f          	j	2000389a <GPIOA_IRQHandler>
D:/DATA/Electronic/MCU&MPU&DSP/32bit/«ﬂ∫„WCH/CH573_CH571/CH573EVT/EVT/EXAM/SRC/Startup/startup_CH573.S:42
        j   GPIOB_IRQHandler           /* GPIOB */
20003848:	0540006f          	j	2000389c <GPIOB_IRQHandler>
D:/DATA/Electronic/MCU&MPU&DSP/32bit/«ﬂ∫„WCH/CH573_CH571/CH573EVT/EVT/EXAM/SRC/Startup/startup_CH573.S:43
        j   SPI0_IRQHandler            /* SPI0 */
2000384c:	0520006f          	j	2000389e <SPI0_IRQHandler>
D:/DATA/Electronic/MCU&MPU&DSP/32bit/«ﬂ∫„WCH/CH573_CH571/CH573EVT/EVT/EXAM/SRC/Startup/startup_CH573.S:44
        j   BB_IRQHandler              /* BLEB */
20003850:	0500006f          	j	200038a0 <BB_IRQHandler>
D:/DATA/Electronic/MCU&MPU&DSP/32bit/«ﬂ∫„WCH/CH573_CH571/CH573EVT/EVT/EXAM/SRC/Startup/startup_CH573.S:45
        j   LLE_IRQHandler             /* BLEL */
20003854:	04e0006f          	j	200038a2 <LLE_IRQHandler>
D:/DATA/Electronic/MCU&MPU&DSP/32bit/«ﬂ∫„WCH/CH573_CH571/CH573EVT/EVT/EXAM/SRC/Startup/startup_CH573.S:46
        j   USB_IRQHandler             /* USB */
20003858:	04c0006f          	j	200038a4 <USB_IRQHandler>
2000385c:	0000                	unimp
2000385e:	0000                	unimp
D:/DATA/Electronic/MCU&MPU&DSP/32bit/«ﬂ∫„WCH/CH573_CH571/CH573EVT/EVT/EXAM/SRC/Startup/startup_CH573.S:48
        .word   0
        j   TMR1_IRQHandler            /* TMR1 */
20003860:	0820006f          	j	200038e2 <TMR1_IRQHandler>
D:/DATA/Electronic/MCU&MPU&DSP/32bit/«ﬂ∫„WCH/CH573_CH571/CH573EVT/EVT/EXAM/SRC/Startup/startup_CH573.S:49
        j   TMR2_IRQHandler            /* TMR2 */
20003864:	0a60006f          	j	2000390a <TMR2_IRQHandler>
D:/DATA/Electronic/MCU&MPU&DSP/32bit/«ﬂ∫„WCH/CH573_CH571/CH573EVT/EVT/EXAM/SRC/Startup/startup_CH573.S:50
        j   UART0_IRQHandler           /* UART0 */
20003868:	0420006f          	j	200038aa <UART0_IRQHandler>
D:/DATA/Electronic/MCU&MPU&DSP/32bit/«ﬂ∫„WCH/CH573_CH571/CH573EVT/EVT/EXAM/SRC/Startup/startup_CH573.S:51
        j   UART1_IRQHandler           /* UART1 */
2000386c:	0400006f          	j	200038ac <UART1_IRQHandler>
D:/DATA/Electronic/MCU&MPU&DSP/32bit/«ﬂ∫„WCH/CH573_CH571/CH573EVT/EVT/EXAM/SRC/Startup/startup_CH573.S:52
        j   RTC_IRQHandler             /* RTC */
20003870:	03e0006f          	j	200038ae <RTC_IRQHandler>
D:/DATA/Electronic/MCU&MPU&DSP/32bit/«ﬂ∫„WCH/CH573_CH571/CH573EVT/EVT/EXAM/SRC/Startup/startup_CH573.S:53
        j   ADC_IRQHandler             /* ADC */
20003874:	03c0006f          	j	200038b0 <ADC_IRQHandler>
20003878:	0000                	unimp
2000387a:	0000                	unimp
D:/DATA/Electronic/MCU&MPU&DSP/32bit/«ﬂ∫„WCH/CH573_CH571/CH573EVT/EVT/EXAM/SRC/Startup/startup_CH573.S:55
        .word   0
        j   PWMX_IRQHandler            /* PWMX */
2000387c:	0360006f          	j	200038b2 <PWMX_IRQHandler>
D:/DATA/Electronic/MCU&MPU&DSP/32bit/«ﬂ∫„WCH/CH573_CH571/CH573EVT/EVT/EXAM/SRC/Startup/startup_CH573.S:56
        j   TMR3_IRQHandler            /* TMR3 */
20003880:	0340006f          	j	200038b4 <TMR3_IRQHandler>
D:/DATA/Electronic/MCU&MPU&DSP/32bit/«ﬂ∫„WCH/CH573_CH571/CH573EVT/EVT/EXAM/SRC/Startup/startup_CH573.S:57
        j   UART2_IRQHandler           /* UART2 */
20003884:	0320006f          	j	200038b6 <UART2_IRQHandler>
D:/DATA/Electronic/MCU&MPU&DSP/32bit/«ﬂ∫„WCH/CH573_CH571/CH573EVT/EVT/EXAM/SRC/Startup/startup_CH573.S:58
        j   UART3_IRQHandler           /* UART3 */
20003888:	0300006f          	j	200038b8 <UART3_IRQHandler>
D:/DATA/Electronic/MCU&MPU&DSP/32bit/«ﬂ∫„WCH/CH573_CH571/CH573EVT/EVT/EXAM/SRC/Startup/startup_CH573.S:59
        j   WDOG_BAT_IRQHandler        /* WDOG_BAT */
2000388c:	02e0006f          	j	200038ba <WDOG_BAT_IRQHandler>

20003890 <NMI_Handler>:
NMI_Handler():
D:/DATA/Electronic/MCU&MPU&DSP/32bit/«ﬂ∫„WCH/CH573_CH571/CH573EVT/EVT/EXAM/SRC/Startup/startup_CH573.S:87
    .weak   TMR3_IRQHandler
    .weak   UART2_IRQHandler
    .weak   UART3_IRQHandler
    .weak   WDOG_BAT_IRQHandler

NMI_Handler:  1:  j 1b
20003890:	a001                	j	20003890 <NMI_Handler>
D:/DATA/Electronic/MCU&MPU&DSP/32bit/«ﬂ∫„WCH/CH573_CH571/CH573EVT/EVT/EXAM/SRC/Startup/startup_CH573.S:88
HardFault_Handler:  1:  j 1b
20003892:	a001                	j	20003892 <NMI_Handler+0x2>

20003894 <SysTick_Handler>:
SysTick_Handler():
D:/DATA/Electronic/MCU&MPU&DSP/32bit/«ﬂ∫„WCH/CH573_CH571/CH573EVT/EVT/EXAM/SRC/Startup/startup_CH573.S:89
SysTick_Handler:  1:  j 1b
20003894:	a001                	j	20003894 <SysTick_Handler>

20003896 <SW_Handler>:
SW_Handler():
D:/DATA/Electronic/MCU&MPU&DSP/32bit/«ﬂ∫„WCH/CH573_CH571/CH573EVT/EVT/EXAM/SRC/Startup/startup_CH573.S:90
SW_Handler:  1:  j 1b
20003896:	a001                	j	20003896 <SW_Handler>
D:/DATA/Electronic/MCU&MPU&DSP/32bit/«ﬂ∫„WCH/CH573_CH571/CH573EVT/EVT/EXAM/SRC/Startup/startup_CH573.S:91
TMR0_IRQHandler:  1:  j 1b
20003898:	a001                	j	20003898 <SW_Handler+0x2>

2000389a <GPIOA_IRQHandler>:
GPIOA_IRQHandler():
D:/DATA/Electronic/MCU&MPU&DSP/32bit/«ﬂ∫„WCH/CH573_CH571/CH573EVT/EVT/EXAM/SRC/Startup/startup_CH573.S:92
GPIOA_IRQHandler:  1:  j 1b
2000389a:	a001                	j	2000389a <GPIOA_IRQHandler>

2000389c <GPIOB_IRQHandler>:
GPIOB_IRQHandler():
D:/DATA/Electronic/MCU&MPU&DSP/32bit/«ﬂ∫„WCH/CH573_CH571/CH573EVT/EVT/EXAM/SRC/Startup/startup_CH573.S:93
GPIOB_IRQHandler:  1:  j 1b
2000389c:	a001                	j	2000389c <GPIOB_IRQHandler>

2000389e <SPI0_IRQHandler>:
SPI0_IRQHandler():
D:/DATA/Electronic/MCU&MPU&DSP/32bit/«ﬂ∫„WCH/CH573_CH571/CH573EVT/EVT/EXAM/SRC/Startup/startup_CH573.S:94
SPI0_IRQHandler:  1:  j 1b
2000389e:	a001                	j	2000389e <SPI0_IRQHandler>

200038a0 <BB_IRQHandler>:
BB_IRQHandler():
D:/DATA/Electronic/MCU&MPU&DSP/32bit/«ﬂ∫„WCH/CH573_CH571/CH573EVT/EVT/EXAM/SRC/Startup/startup_CH573.S:95
BB_IRQHandler:  1:  j 1b
200038a0:	a001                	j	200038a0 <BB_IRQHandler>

200038a2 <LLE_IRQHandler>:
LLE_IRQHandler():
D:/DATA/Electronic/MCU&MPU&DSP/32bit/«ﬂ∫„WCH/CH573_CH571/CH573EVT/EVT/EXAM/SRC/Startup/startup_CH573.S:96
LLE_IRQHandler:  1:  j 1b
200038a2:	a001                	j	200038a2 <LLE_IRQHandler>

200038a4 <USB_IRQHandler>:
USB_IRQHandler():
D:/DATA/Electronic/MCU&MPU&DSP/32bit/«ﬂ∫„WCH/CH573_CH571/CH573EVT/EVT/EXAM/SRC/Startup/startup_CH573.S:97
USB_IRQHandler:  1:  j 1b
200038a4:	a001                	j	200038a4 <USB_IRQHandler>
D:/DATA/Electronic/MCU&MPU&DSP/32bit/«ﬂ∫„WCH/CH573_CH571/CH573EVT/EVT/EXAM/SRC/Startup/startup_CH573.S:98
TMR1_IRQHandler:  1:  j 1b
200038a6:	a001                	j	200038a6 <USB_IRQHandler+0x2>
D:/DATA/Electronic/MCU&MPU&DSP/32bit/«ﬂ∫„WCH/CH573_CH571/CH573EVT/EVT/EXAM/SRC/Startup/startup_CH573.S:99
TMR2_IRQHandler:  1:  j 1b
200038a8:	a001                	j	200038a8 <USB_IRQHandler+0x4>

200038aa <UART0_IRQHandler>:
UART0_IRQHandler():
D:/DATA/Electronic/MCU&MPU&DSP/32bit/«ﬂ∫„WCH/CH573_CH571/CH573EVT/EVT/EXAM/SRC/Startup/startup_CH573.S:100
UART0_IRQHandler:  1:  j 1b
200038aa:	a001                	j	200038aa <UART0_IRQHandler>

200038ac <UART1_IRQHandler>:
UART1_IRQHandler():
D:/DATA/Electronic/MCU&MPU&DSP/32bit/«ﬂ∫„WCH/CH573_CH571/CH573EVT/EVT/EXAM/SRC/Startup/startup_CH573.S:101
UART1_IRQHandler:  1:  j 1b
200038ac:	a001                	j	200038ac <UART1_IRQHandler>

200038ae <RTC_IRQHandler>:
RTC_IRQHandler():
D:/DATA/Electronic/MCU&MPU&DSP/32bit/«ﬂ∫„WCH/CH573_CH571/CH573EVT/EVT/EXAM/SRC/Startup/startup_CH573.S:102
RTC_IRQHandler:  1:  j 1b
200038ae:	a001                	j	200038ae <RTC_IRQHandler>

200038b0 <ADC_IRQHandler>:
ADC_IRQHandler():
D:/DATA/Electronic/MCU&MPU&DSP/32bit/«ﬂ∫„WCH/CH573_CH571/CH573EVT/EVT/EXAM/SRC/Startup/startup_CH573.S:103
ADC_IRQHandler:  1:  j 1b
200038b0:	a001                	j	200038b0 <ADC_IRQHandler>

200038b2 <PWMX_IRQHandler>:
PWMX_IRQHandler():
D:/DATA/Electronic/MCU&MPU&DSP/32bit/«ﬂ∫„WCH/CH573_CH571/CH573EVT/EVT/EXAM/SRC/Startup/startup_CH573.S:104
PWMX_IRQHandler:  1:  j 1b
200038b2:	a001                	j	200038b2 <PWMX_IRQHandler>

200038b4 <TMR3_IRQHandler>:
TMR3_IRQHandler():
D:/DATA/Electronic/MCU&MPU&DSP/32bit/«ﬂ∫„WCH/CH573_CH571/CH573EVT/EVT/EXAM/SRC/Startup/startup_CH573.S:105
TMR3_IRQHandler:  1:  j 1b
200038b4:	a001                	j	200038b4 <TMR3_IRQHandler>

200038b6 <UART2_IRQHandler>:
UART2_IRQHandler():
D:/DATA/Electronic/MCU&MPU&DSP/32bit/«ﬂ∫„WCH/CH573_CH571/CH573EVT/EVT/EXAM/SRC/Startup/startup_CH573.S:106
UART2_IRQHandler:  1:  j 1b
200038b6:	a001                	j	200038b6 <UART2_IRQHandler>

200038b8 <UART3_IRQHandler>:
UART3_IRQHandler():
D:/DATA/Electronic/MCU&MPU&DSP/32bit/«ﬂ∫„WCH/CH573_CH571/CH573EVT/EVT/EXAM/SRC/Startup/startup_CH573.S:107
UART3_IRQHandler:  1:  j 1b
200038b8:	a001                	j	200038b8 <UART3_IRQHandler>

200038ba <WDOG_BAT_IRQHandler>:
WDOG_BAT_IRQHandler():
D:/DATA/Electronic/MCU&MPU&DSP/32bit/«ﬂ∫„WCH/CH573_CH571/CH573EVT/EVT/EXAM/SRC/Startup/startup_CH573.S:108
WDOG_BAT_IRQHandler:  1:  j 1b
200038ba:	a001                	j	200038ba <WDOG_BAT_IRQHandler>

200038bc <TMR0_IRQHandler>:
TMR0_IRQHandler():
D:\DATA\Electronic\MCU&MPU&DSP\32bit\«ﬂ∫„WCH\CH573_CH571\CH573EVT\EVT\EXAM\TMR\obj/../src/Main.c:154
 */
__attribute__((interrupt("WCH-Interrupt-fast")))
__attribute__((section(".highcode")))
void TMR0_IRQHandler(void) // TMR0 ∂® ±÷–∂œ
{
    if(TMR0_GetITFlag(TMR0_3_IT_CYC_END))
200038bc:	40002737          	lui	a4,0x40002
200038c0:	00674783          	lbu	a5,6(a4) # 40002006 <_eusrstack+0x1fffa006>
200038c4:	8b85                	andi	a5,a5,1
200038c6:	cf81                	beqz	a5,200038de <TMR0_IRQHandler+0x22>
D:\DATA\Electronic\MCU&MPU&DSP\32bit\«ﬂ∫„WCH\CH573_CH571\CH573EVT\EVT\EXAM\TMR\obj/../src/Main.c:156
    {
        TMR0_ClearITFlag(TMR0_3_IT_CYC_END); // «Â≥˝÷–∂œ±Í÷æ
200038c8:	4785                	li	a5,1
200038ca:	00f70323          	sb	a5,6(a4)
D:\DATA\Electronic\MCU&MPU&DSP\32bit\«ﬂ∫„WCH\CH573_CH571\CH573EVT\EVT\EXAM\TMR\obj/../src/Main.c:157
        GPIOB_InverseBits(GPIO_Pin_15);
200038ce:	40001737          	lui	a4,0x40001
200038d2:	0c872783          	lw	a5,200(a4) # 400010c8 <_eusrstack+0x1fff90c8>
200038d6:	66a1                	lui	a3,0x8
200038d8:	8fb5                	xor	a5,a5,a3
200038da:	0cf72423          	sw	a5,200(a4)
D:\DATA\Electronic\MCU&MPU&DSP\32bit\«ﬂ∫„WCH\CH573_CH571\CH573EVT\EVT\EXAM\TMR\obj/../src/Main.c:159
    }
}
200038de:	30200073          	mret

200038e2 <TMR1_IRQHandler>:
TMR1_IRQHandler():
D:\DATA\Electronic\MCU&MPU&DSP\32bit\«ﬂ∫„WCH\CH573_CH571\CH573EVT\EVT\EXAM\TMR\obj/../src/Main.c:172
 */
__attribute__((interrupt("WCH-Interrupt-fast")))
__attribute__((section(".highcode")))
void TMR1_IRQHandler(void) // TMR1 ∂® ±÷–∂œ
{
    if(TMR1_GetITFlag(TMR1_2_IT_DMA_END))
200038e2:	400027b7          	lui	a5,0x40002
200038e6:	4067c703          	lbu	a4,1030(a5) # 40002406 <_eusrstack+0x1fffa406>
200038ea:	8b21                	andi	a4,a4,8
200038ec:	cf09                	beqz	a4,20003906 <TMR1_IRQHandler+0x24>
D:\DATA\Electronic\MCU&MPU&DSP\32bit\«ﬂ∫„WCH\CH573_CH571\CH573EVT\EVT\EXAM\TMR\obj/../src/Main.c:174
    {
        TMR1_ITCfg(DISABLE, TMR1_2_IT_DMA_END); //  π”√µ•¥ŒDMAπ¶ƒ‹+÷–∂œ£¨◊¢“‚ÕÍ≥…∫Ûπÿ±’¥À÷–∂œ πƒ‹£¨∑Ò‘Úª·“ª÷±…œ±®÷–∂œ°£
200038ee:	4027c703          	lbu	a4,1026(a5)
200038f2:	0f777713          	andi	a4,a4,247
200038f6:	40e78123          	sb	a4,1026(a5)
D:\DATA\Electronic\MCU&MPU&DSP\32bit\«ﬂ∫„WCH\CH573_CH571\CH573EVT\EVT\EXAM\TMR\obj/../src/Main.c:175
        TMR1_ClearITFlag(TMR1_2_IT_DMA_END);    // «Â≥˝÷–∂œ±Í÷æ
200038fa:	4721                	li	a4,8
200038fc:	40e78323          	sb	a4,1030(a5)
D:\DATA\Electronic\MCU&MPU&DSP\32bit\«ﬂ∫„WCH\CH573_CH571\CH573EVT\EVT\EXAM\TMR\obj/../src/Main.c:176
        capFlag = 1;
20003900:	4785                	li	a5,1
20003902:	80f18423          	sb	a5,-2040(gp) # 20004068 <_edata>
D:\DATA\Electronic\MCU&MPU&DSP\32bit\«ﬂ∫„WCH\CH573_CH571\CH573EVT\EVT\EXAM\TMR\obj/../src/Main.c:178
    }
}
20003906:	30200073          	mret

2000390a <TMR2_IRQHandler>:
TMR2_IRQHandler():
D:\DATA\Electronic\MCU&MPU&DSP\32bit\«ﬂ∫„WCH\CH573_CH571\CH573EVT\EVT\EXAM\TMR\obj/../src/Main.c:191
 */
__attribute__((interrupt("WCH-Interrupt-fast")))
__attribute__((section(".highcode")))
void TMR2_IRQHandler(void)
{
    if(TMR2_GetITFlag(TMR0_3_IT_CYC_END))
2000390a:	40003737          	lui	a4,0x40003
2000390e:	80674783          	lbu	a5,-2042(a4) # 40002806 <_eusrstack+0x1fffa806>
20003912:	8b85                	andi	a5,a5,1
20003914:	c781                	beqz	a5,2000391c <TMR2_IRQHandler+0x12>
D:\DATA\Electronic\MCU&MPU&DSP\32bit\«ﬂ∫„WCH\CH573_CH571\CH573EVT\EVT\EXAM\TMR\obj/../src/Main.c:193
    {
        TMR2_ClearITFlag(TMR0_3_IT_CYC_END);
20003916:	4785                	li	a5,1
20003918:	80f70323          	sb	a5,-2042(a4)
D:\DATA\Electronic\MCU&MPU&DSP\32bit\«ﬂ∫„WCH\CH573_CH571\CH573EVT\EVT\EXAM\TMR\obj/../src/Main.c:197
        /* º∆ ˝∆˜º∆¬˙£¨”≤º˛◊‘∂Ø«Â¡„£¨÷ÿ–¬ø™ ºº∆ ˝ */
        /* ”√ªßø…◊‘––ÃÌº”–Ë“™µƒ¥¶¿Ì */
    }
    if(TMR2_GetITFlag(TMR1_2_IT_DMA_END))
2000391c:	40003737          	lui	a4,0x40003
20003920:	80674783          	lbu	a5,-2042(a4) # 40002806 <_eusrstack+0x1fffa806>
20003924:	8ba1                	andi	a5,a5,8
20003926:	cf81                	beqz	a5,2000393e <TMR2_IRQHandler+0x34>
D:\DATA\Electronic\MCU&MPU&DSP\32bit\«ﬂ∫„WCH\CH573_CH571\CH573EVT\EVT\EXAM\TMR\obj/../src/Main.c:199
    {
        TMR2_ClearITFlag(TMR1_2_IT_DMA_END);
20003928:	47a1                	li	a5,8
2000392a:	80f70323          	sb	a5,-2042(a4)
D:\DATA\Electronic\MCU&MPU&DSP\32bit\«ﬂ∫„WCH\CH573_CH571\CH573EVT\EVT\EXAM\TMR\obj/../src/Main.c:200
        PRINT("DMA end\n");
2000392e:	dfffe517          	auipc	a0,0xdfffe
20003932:	6f250513          	addi	a0,a0,1778 # 2020 <_sbrk+0x44>
20003936:	dfffd097          	auipc	ra,0xdfffd
2000393a:	504080e7          	jalr	1284(ra) # e3a <puts>
D:\DATA\Electronic\MCU&MPU&DSP\32bit\«ﬂ∫„WCH\CH573_CH571\CH573EVT\EVT\EXAM\TMR\obj/../src/Main.c:204
        /* DMA Ω· ¯ */
        /* ”√ªßø…◊‘––ÃÌº”–Ë“™µƒ¥¶¿Ì */
    }
}
2000393e:	30200073          	mret

20003942 <SetSysClock>:
sys_safe_access_enable():
D:\DATA\Electronic\MCU&MPU&DSP\32bit\«ﬂ∫„WCH\CH573_CH571\CH573EVT\EVT\EXAM\SRC\StdPeriphDriver\inc/CH57x_sys.h:178
 * @NOTE: Ω¯»Î∞≤»´∑√Œ ƒ£ Ω∫Û‘º16∏ˆœµÕ≥÷˜∆µ÷‹∆⁄∂º¥¶”⁄∞≤»´ƒ£ Ωœ¬£¨
 * ∏√”––ß∆⁄ƒ⁄ø…“‘∏ƒ–¥“ª∏ˆªÚ∂‡∏ˆ∞≤»´¿‡ºƒ¥Ê∆˜£¨≥¨≥ˆ…œ ˆ”––ß∆⁄∫ÛΩ´◊‘∂Ø÷’÷π∞≤»´ƒ£ Ω°£
 */
 __attribute__((always_inline)) static inline void sys_safe_access_enable(void)
{
    R8_SAFE_ACCESS_SIG = SAFE_ACCESS_SIG1;
20003942:	400017b7          	lui	a5,0x40001
20003946:	05700693          	li	a3,87
2000394a:	04d78023          	sb	a3,64(a5) # 40001040 <_eusrstack+0x1fff9040>
D:\DATA\Electronic\MCU&MPU&DSP\32bit\«ﬂ∫„WCH\CH573_CH571\CH573EVT\EVT\EXAM\SRC\StdPeriphDriver\inc/CH57x_sys.h:179
    R8_SAFE_ACCESS_SIG = SAFE_ACCESS_SIG2;
2000394e:	fa800713          	li	a4,-88
20003952:	04e78023          	sb	a4,64(a5)
SetSysClock():
D:/DATA/Electronic/MCU&MPU&DSP/32bit/«ﬂ∫„WCH/CH573_CH571/CH573EVT/EVT/EXAM/SRC/StdPeriphDriver/CH57x_sys.c:29
__attribute__((section(".highcode")))
void SetSysClock(SYS_CLKTypeDef sc)
{
    uint32_t i;
    sys_safe_access_enable();
    R8_PLL_CONFIG &= ~(1 << 5); //
20003956:	04b7c603          	lbu	a2,75(a5)
2000395a:	0df67613          	andi	a2,a2,223
2000395e:	04c785a3          	sb	a2,75(a5)
sys_safe_access_disable():
D:\DATA\Electronic\MCU&MPU&DSP\32bit\«ﬂ∫„WCH\CH573_CH571\CH573EVT\EVT\EXAM\SRC\StdPeriphDriver\inc/CH57x_sys.h:184
}

__attribute__((always_inline)) static inline void sys_safe_access_disable(void)
{
    R8_SAFE_ACCESS_SIG = 0;
20003962:	04078023          	sb	zero,64(a5)
SetSysClock():
D:/DATA/Electronic/MCU&MPU&DSP/32bit/«ﬂ∫„WCH/CH573_CH571/CH573EVT/EVT/EXAM/SRC/StdPeriphDriver/CH57x_sys.c:31
    sys_safe_access_disable();
    if(sc & 0x20)
20003966:	02057613          	andi	a2,a0,32
2000396a:	c62d                	beqz	a2,200039d4 <SetSysClock+0x92>
D:/DATA/Electronic/MCU&MPU&DSP/32bit/«ﬂ∫„WCH/CH573_CH571/CH573EVT/EVT/EXAM/SRC/StdPeriphDriver/CH57x_sys.c:33
    { // HSE div
        if(!(R8_HFCK_PWR_CTRL & RB_CLK_XT32M_PON))
2000396c:	00a7c603          	lbu	a2,10(a5)
20003970:	8a11                	andi	a2,a2,4
20003972:	e20d                	bnez	a2,20003994 <SetSysClock+0x52>
sys_safe_access_enable():
D:\DATA\Electronic\MCU&MPU&DSP\32bit\«ﬂ∫„WCH\CH573_CH571\CH573EVT\EVT\EXAM\SRC\StdPeriphDriver\inc/CH57x_sys.h:178
    R8_SAFE_ACCESS_SIG = SAFE_ACCESS_SIG1;
20003974:	04d78023          	sb	a3,64(a5)
D:\DATA\Electronic\MCU&MPU&DSP\32bit\«ﬂ∫„WCH\CH573_CH571\CH573EVT\EVT\EXAM\SRC\StdPeriphDriver\inc/CH57x_sys.h:179
    R8_SAFE_ACCESS_SIG = SAFE_ACCESS_SIG2;
20003978:	04e78023          	sb	a4,64(a5)
SetSysClock():
D:/DATA/Electronic/MCU&MPU&DSP/32bit/«ﬂ∫„WCH/CH573_CH571/CH573EVT/EVT/EXAM/SRC/StdPeriphDriver/CH57x_sys.c:36
        {
            sys_safe_access_enable();
            R8_HFCK_PWR_CTRL |= RB_CLK_XT32M_PON; // HSE power on
2000397c:	00a7c703          	lbu	a4,10(a5)
20003980:	00476713          	ori	a4,a4,4
20003984:	00e78523          	sb	a4,10(a5)
20003988:	4b000793          	li	a5,1200
D:/DATA/Electronic/MCU&MPU&DSP/32bit/«ﬂ∫„WCH/CH573_CH571/CH573EVT/EVT/EXAM/SRC/StdPeriphDriver/CH57x_sys.c:39 (discriminator 3)
            for(i = 0; i < 1200; i++)
            {
                __nop();
2000398c:	0001                	nop
D:/DATA/Electronic/MCU&MPU&DSP/32bit/«ﬂ∫„WCH/CH573_CH571/CH573EVT/EVT/EXAM/SRC/StdPeriphDriver/CH57x_sys.c:40 (discriminator 3)
                __nop();
2000398e:	0001                	nop
20003990:	17fd                	addi	a5,a5,-1
D:/DATA/Electronic/MCU&MPU&DSP/32bit/«ﬂ∫„WCH/CH573_CH571/CH573EVT/EVT/EXAM/SRC/StdPeriphDriver/CH57x_sys.c:37 (discriminator 3)
            for(i = 0; i < 1200; i++)
20003992:	ffed                	bnez	a5,2000398c <SetSysClock+0x4a>
sys_safe_access_enable():
D:\DATA\Electronic\MCU&MPU&DSP\32bit\«ﬂ∫„WCH\CH573_CH571\CH573EVT\EVT\EXAM\SRC\StdPeriphDriver\inc/CH57x_sys.h:178
    R8_SAFE_ACCESS_SIG = SAFE_ACCESS_SIG1;
20003994:	400017b7          	lui	a5,0x40001
20003998:	05700693          	li	a3,87
2000399c:	04d78023          	sb	a3,64(a5) # 40001040 <_eusrstack+0x1fff9040>
D:\DATA\Electronic\MCU&MPU&DSP\32bit\«ﬂ∫„WCH\CH573_CH571\CH573EVT\EVT\EXAM\SRC\StdPeriphDriver\inc/CH57x_sys.h:179
    R8_SAFE_ACCESS_SIG = SAFE_ACCESS_SIG2;
200039a0:	fa800713          	li	a4,-88
200039a4:	04e78023          	sb	a4,64(a5)
SetSysClock():
D:/DATA/Electronic/MCU&MPU&DSP/32bit/«ﬂ∫„WCH/CH573_CH571/CH573EVT/EVT/EXAM/SRC/StdPeriphDriver/CH57x_sys.c:45
            }
        }

        sys_safe_access_enable();
        R16_CLK_SYS_CFG = (0 << 6) | (sc & 0x1f);
200039a8:	897d                	andi	a0,a0,31
200039aa:	00a79423          	sh	a0,8(a5)
D:/DATA/Electronic/MCU&MPU&DSP/32bit/«ﬂ∫„WCH/CH573_CH571/CH573EVT/EVT/EXAM/SRC/StdPeriphDriver/CH57x_sys.c:46
        __nop();
200039ae:	0001                	nop
D:/DATA/Electronic/MCU&MPU&DSP/32bit/«ﬂ∫„WCH/CH573_CH571/CH573EVT/EVT/EXAM/SRC/StdPeriphDriver/CH57x_sys.c:47
        __nop();
200039b0:	0001                	nop
D:/DATA/Electronic/MCU&MPU&DSP/32bit/«ﬂ∫„WCH/CH573_CH571/CH573EVT/EVT/EXAM/SRC/StdPeriphDriver/CH57x_sys.c:48
        __nop();
200039b2:	0001                	nop
D:/DATA/Electronic/MCU&MPU&DSP/32bit/«ﬂ∫„WCH/CH573_CH571/CH573EVT/EVT/EXAM/SRC/StdPeriphDriver/CH57x_sys.c:49
        __nop();
200039b4:	0001                	nop
sys_safe_access_disable():
D:\DATA\Electronic\MCU&MPU&DSP\32bit\«ﬂ∫„WCH\CH573_CH571\CH573EVT\EVT\EXAM\SRC\StdPeriphDriver\inc/CH57x_sys.h:184
    R8_SAFE_ACCESS_SIG = 0;
200039b6:	04078023          	sb	zero,64(a5)
sys_safe_access_enable():
D:\DATA\Electronic\MCU&MPU&DSP\32bit\«ﬂ∫„WCH\CH573_CH571\CH573EVT\EVT\EXAM\SRC\StdPeriphDriver\inc/CH57x_sys.h:178
    R8_SAFE_ACCESS_SIG = SAFE_ACCESS_SIG1;
200039ba:	04d78023          	sb	a3,64(a5)
D:\DATA\Electronic\MCU&MPU&DSP\32bit\«ﬂ∫„WCH\CH573_CH571\CH573EVT\EVT\EXAM\SRC\StdPeriphDriver\inc/CH57x_sys.h:179
    R8_SAFE_ACCESS_SIG = SAFE_ACCESS_SIG2;
200039be:	04e78023          	sb	a4,64(a5)
SetSysClock():
D:/DATA/Electronic/MCU&MPU&DSP/32bit/«ﬂ∫„WCH/CH573_CH571/CH573EVT/EVT/EXAM/SRC/StdPeriphDriver/CH57x_sys.c:52
        sys_safe_access_disable();
        sys_safe_access_enable();
        R8_FLASH_CFG = 0X51;
200039c2:	05100693          	li	a3,81
200039c6:	40002737          	lui	a4,0x40002
D:/DATA/Electronic/MCU&MPU&DSP/32bit/«ﬂ∫„WCH/CH573_CH571/CH573EVT/EVT/EXAM/SRC/StdPeriphDriver/CH57x_sys.c:76
        __nop();
        __nop();
        __nop();
        sys_safe_access_disable();
        sys_safe_access_enable();
        R8_FLASH_CFG = 0X53;
200039ca:	80d703a3          	sb	a3,-2041(a4) # 40001807 <_eusrstack+0x1fff9807>
sys_safe_access_disable():
D:\DATA\Electronic\MCU&MPU&DSP\32bit\«ﬂ∫„WCH\CH573_CH571\CH573EVT\EVT\EXAM\SRC\StdPeriphDriver\inc/CH57x_sys.h:184
    R8_SAFE_ACCESS_SIG = 0;
200039ce:	04078023          	sb	zero,64(a5)
SetSysClock():
D:/DATA/Electronic/MCU&MPU&DSP/32bit/«ﬂ∫„WCH/CH573_CH571/CH573EVT/EVT/EXAM/SRC/StdPeriphDriver/CH57x_sys.c:79
        sys_safe_access_disable();
    }
}
200039d2:	8082                	ret
D:/DATA/Electronic/MCU&MPU&DSP/32bit/«ﬂ∫„WCH/CH573_CH571/CH573EVT/EVT/EXAM/SRC/StdPeriphDriver/CH57x_sys.c:56
    else if(sc & 0x40)
200039d4:	04057613          	andi	a2,a0,64
200039d8:	de6d                	beqz	a2,200039d2 <SetSysClock+0x90>
D:/DATA/Electronic/MCU&MPU&DSP/32bit/«ﬂ∫„WCH/CH573_CH571/CH573EVT/EVT/EXAM/SRC/StdPeriphDriver/CH57x_sys.c:58
        if(!(R8_HFCK_PWR_CTRL & RB_CLK_PLL_PON))
200039da:	00a7c603          	lbu	a2,10(a5)
200039de:	8a41                	andi	a2,a2,16
200039e0:	e20d                	bnez	a2,20003a02 <SetSysClock+0xc0>
sys_safe_access_enable():
D:\DATA\Electronic\MCU&MPU&DSP\32bit\«ﬂ∫„WCH\CH573_CH571\CH573EVT\EVT\EXAM\SRC\StdPeriphDriver\inc/CH57x_sys.h:178
    R8_SAFE_ACCESS_SIG = SAFE_ACCESS_SIG1;
200039e2:	04d78023          	sb	a3,64(a5)
D:\DATA\Electronic\MCU&MPU&DSP\32bit\«ﬂ∫„WCH\CH573_CH571\CH573EVT\EVT\EXAM\SRC\StdPeriphDriver\inc/CH57x_sys.h:179
    R8_SAFE_ACCESS_SIG = SAFE_ACCESS_SIG2;
200039e6:	04e78023          	sb	a4,64(a5)
SetSysClock():
D:/DATA/Electronic/MCU&MPU&DSP/32bit/«ﬂ∫„WCH/CH573_CH571/CH573EVT/EVT/EXAM/SRC/StdPeriphDriver/CH57x_sys.c:61
            R8_HFCK_PWR_CTRL |= RB_CLK_PLL_PON; // PLL power on
200039ea:	00a7c703          	lbu	a4,10(a5)
200039ee:	01076713          	ori	a4,a4,16
200039f2:	00e78523          	sb	a4,10(a5)
200039f6:	7d000793          	li	a5,2000
D:/DATA/Electronic/MCU&MPU&DSP/32bit/«ﬂ∫„WCH/CH573_CH571/CH573EVT/EVT/EXAM/SRC/StdPeriphDriver/CH57x_sys.c:64 (discriminator 3)
                __nop();
200039fa:	0001                	nop
D:/DATA/Electronic/MCU&MPU&DSP/32bit/«ﬂ∫„WCH/CH573_CH571/CH573EVT/EVT/EXAM/SRC/StdPeriphDriver/CH57x_sys.c:65 (discriminator 3)
                __nop();
200039fc:	0001                	nop
200039fe:	17fd                	addi	a5,a5,-1
D:/DATA/Electronic/MCU&MPU&DSP/32bit/«ﬂ∫„WCH/CH573_CH571/CH573EVT/EVT/EXAM/SRC/StdPeriphDriver/CH57x_sys.c:62 (discriminator 3)
            for(i = 0; i < 2000; i++)
20003a00:	ffed                	bnez	a5,200039fa <SetSysClock+0xb8>
sys_safe_access_enable():
D:\DATA\Electronic\MCU&MPU&DSP\32bit\«ﬂ∫„WCH\CH573_CH571\CH573EVT\EVT\EXAM\SRC\StdPeriphDriver\inc/CH57x_sys.h:178
    R8_SAFE_ACCESS_SIG = SAFE_ACCESS_SIG1;
20003a02:	400017b7          	lui	a5,0x40001
20003a06:	05700693          	li	a3,87
20003a0a:	04d78023          	sb	a3,64(a5) # 40001040 <_eusrstack+0x1fff9040>
D:\DATA\Electronic\MCU&MPU&DSP\32bit\«ﬂ∫„WCH\CH573_CH571\CH573EVT\EVT\EXAM\SRC\StdPeriphDriver\inc/CH57x_sys.h:179
    R8_SAFE_ACCESS_SIG = SAFE_ACCESS_SIG2;
20003a0e:	fa800713          	li	a4,-88
SetSysClock():
D:/DATA/Electronic/MCU&MPU&DSP/32bit/«ﬂ∫„WCH/CH573_CH571/CH573EVT/EVT/EXAM/SRC/StdPeriphDriver/CH57x_sys.c:69
        R16_CLK_SYS_CFG = (1 << 6) | (sc & 0x1f);
20003a12:	897d                	andi	a0,a0,31
sys_safe_access_enable():
D:\DATA\Electronic\MCU&MPU&DSP\32bit\«ﬂ∫„WCH\CH573_CH571\CH573EVT\EVT\EXAM\SRC\StdPeriphDriver\inc/CH57x_sys.h:179
20003a14:	04e78023          	sb	a4,64(a5)
SetSysClock():
D:/DATA/Electronic/MCU&MPU&DSP/32bit/«ﬂ∫„WCH/CH573_CH571/CH573EVT/EVT/EXAM/SRC/StdPeriphDriver/CH57x_sys.c:69
20003a18:	04056513          	ori	a0,a0,64
20003a1c:	00a79423          	sh	a0,8(a5)
D:/DATA/Electronic/MCU&MPU&DSP/32bit/«ﬂ∫„WCH/CH573_CH571/CH573EVT/EVT/EXAM/SRC/StdPeriphDriver/CH57x_sys.c:70
        __nop();
20003a20:	0001                	nop
D:/DATA/Electronic/MCU&MPU&DSP/32bit/«ﬂ∫„WCH/CH573_CH571/CH573EVT/EVT/EXAM/SRC/StdPeriphDriver/CH57x_sys.c:71
        __nop();
20003a22:	0001                	nop
D:/DATA/Electronic/MCU&MPU&DSP/32bit/«ﬂ∫„WCH/CH573_CH571/CH573EVT/EVT/EXAM/SRC/StdPeriphDriver/CH57x_sys.c:72
        __nop();
20003a24:	0001                	nop
D:/DATA/Electronic/MCU&MPU&DSP/32bit/«ﬂ∫„WCH/CH573_CH571/CH573EVT/EVT/EXAM/SRC/StdPeriphDriver/CH57x_sys.c:73
        __nop();
20003a26:	0001                	nop
sys_safe_access_disable():
D:\DATA\Electronic\MCU&MPU&DSP\32bit\«ﬂ∫„WCH\CH573_CH571\CH573EVT\EVT\EXAM\SRC\StdPeriphDriver\inc/CH57x_sys.h:184
    R8_SAFE_ACCESS_SIG = 0;
20003a28:	04078023          	sb	zero,64(a5)
sys_safe_access_enable():
D:\DATA\Electronic\MCU&MPU&DSP\32bit\«ﬂ∫„WCH\CH573_CH571\CH573EVT\EVT\EXAM\SRC\StdPeriphDriver\inc/CH57x_sys.h:178
    R8_SAFE_ACCESS_SIG = SAFE_ACCESS_SIG1;
20003a2c:	04d78023          	sb	a3,64(a5)
D:\DATA\Electronic\MCU&MPU&DSP\32bit\«ﬂ∫„WCH\CH573_CH571\CH573EVT\EVT\EXAM\SRC\StdPeriphDriver\inc/CH57x_sys.h:179
    R8_SAFE_ACCESS_SIG = SAFE_ACCESS_SIG2;
20003a30:	04e78023          	sb	a4,64(a5)
SetSysClock():
D:/DATA/Electronic/MCU&MPU&DSP/32bit/«ﬂ∫„WCH/CH573_CH571/CH573EVT/EVT/EXAM/SRC/StdPeriphDriver/CH57x_sys.c:76
        R8_FLASH_CFG = 0X53;
20003a34:	05300693          	li	a3,83
20003a38:	40002737          	lui	a4,0x40002
20003a3c:	b779                	j	200039ca <SetSysClock+0x88>

20003a3e <SYS_ResetExecute>:
SYS_ResetExecute():
D:/DATA/Electronic/MCU&MPU&DSP/32bit/«ﬂ∫„WCH/CH573_CH571/CH573EVT/EVT/EXAM/SRC/StdPeriphDriver/CH57x_sys.c:141
 *
 * @return  none
 */
__attribute__((section(".highcode")))
void SYS_ResetExecute(void)
{
20003a3e:	1141                	addi	sp,sp,-16
D:/DATA/Electronic/MCU&MPU&DSP/32bit/«ﬂ∫„WCH/CH573_CH571/CH573EVT/EVT/EXAM/SRC/StdPeriphDriver/CH57x_sys.c:142
    FLASH_ROM_SW_RESET();
20003a40:	4681                	li	a3,0
20003a42:	4601                	li	a2,0
20003a44:	4581                	li	a1,0
20003a46:	4511                	li	a0,4
D:/DATA/Electronic/MCU&MPU&DSP/32bit/«ﬂ∫„WCH/CH573_CH571/CH573EVT/EVT/EXAM/SRC/StdPeriphDriver/CH57x_sys.c:141
{
20003a48:	c606                	sw	ra,12(sp)
D:/DATA/Electronic/MCU&MPU&DSP/32bit/«ﬂ∫„WCH/CH573_CH571/CH573EVT/EVT/EXAM/SRC/StdPeriphDriver/CH57x_sys.c:142
    FLASH_ROM_SW_RESET();
20003a4a:	2ab1                	jal	20003ba6 <FLASH_EEPROM_CMD>
sys_safe_access_enable():
D:\DATA\Electronic\MCU&MPU&DSP\32bit\«ﬂ∫„WCH\CH573_CH571\CH573EVT\EVT\EXAM\SRC\StdPeriphDriver\inc/CH57x_sys.h:178
    R8_SAFE_ACCESS_SIG = SAFE_ACCESS_SIG1;
20003a4c:	400017b7          	lui	a5,0x40001
20003a50:	05700713          	li	a4,87
20003a54:	04e78023          	sb	a4,64(a5) # 40001040 <_eusrstack+0x1fff9040>
D:\DATA\Electronic\MCU&MPU&DSP\32bit\«ﬂ∫„WCH\CH573_CH571\CH573EVT\EVT\EXAM\SRC\StdPeriphDriver\inc/CH57x_sys.h:179
    R8_SAFE_ACCESS_SIG = SAFE_ACCESS_SIG2;
20003a58:	fa800713          	li	a4,-88
20003a5c:	04e78023          	sb	a4,64(a5)
SYS_ResetExecute():
D:/DATA/Electronic/MCU&MPU&DSP/32bit/«ﬂ∫„WCH/CH573_CH571/CH573EVT/EVT/EXAM/SRC/StdPeriphDriver/CH57x_sys.c:144
    sys_safe_access_enable();
    R8_RST_WDOG_CTRL |= RB_SOFTWARE_RESET;
20003a60:	0467c703          	lbu	a4,70(a5)
20003a64:	00176713          	ori	a4,a4,1
20003a68:	04e78323          	sb	a4,70(a5)
sys_safe_access_disable():
D:\DATA\Electronic\MCU&MPU&DSP\32bit\«ﬂ∫„WCH\CH573_CH571\CH573EVT\EVT\EXAM\SRC\StdPeriphDriver\inc/CH57x_sys.h:184
    R8_SAFE_ACCESS_SIG = 0;
20003a6c:	04078023          	sb	zero,64(a5)
SYS_ResetExecute():
D:/DATA/Electronic/MCU&MPU&DSP/32bit/«ﬂ∫„WCH/CH573_CH571/CH573EVT/EVT/EXAM/SRC/StdPeriphDriver/CH57x_sys.c:146
    sys_safe_access_disable();
}
20003a70:	40b2                	lw	ra,12(sp)
20003a72:	0141                	addi	sp,sp,16
20003a74:	8082                	ret

20003a76 <HardFault_Handler>:
HardFault_Handler():
D:/DATA/Electronic/MCU&MPU&DSP/32bit/«ﬂ∫„WCH/CH573_CH571/CH573EVT/EVT/EXAM/SRC/StdPeriphDriver/CH57x_sys.c:280
__attribute__((interrupt("WCH-Interrupt-fast")))
__attribute__((section(".highcode")))
__attribute__((weak))
void HardFault_Handler(void)
{
    FLASH_ROM_SW_RESET();
20003a76:	4681                	li	a3,0
20003a78:	4601                	li	a2,0
20003a7a:	4581                	li	a1,0
20003a7c:	4511                	li	a0,4
20003a7e:	2225                	jal	20003ba6 <FLASH_EEPROM_CMD>
sys_safe_access_enable():
D:\DATA\Electronic\MCU&MPU&DSP\32bit\«ﬂ∫„WCH\CH573_CH571\CH573EVT\EVT\EXAM\SRC\StdPeriphDriver\inc/CH57x_sys.h:178
    R8_SAFE_ACCESS_SIG = SAFE_ACCESS_SIG1;
20003a80:	400017b7          	lui	a5,0x40001
20003a84:	05700693          	li	a3,87
20003a88:	04d78023          	sb	a3,64(a5) # 40001040 <_eusrstack+0x1fff9040>
D:\DATA\Electronic\MCU&MPU&DSP\32bit\«ﬂ∫„WCH\CH573_CH571\CH573EVT\EVT\EXAM\SRC\StdPeriphDriver\inc/CH57x_sys.h:179
    R8_SAFE_ACCESS_SIG = SAFE_ACCESS_SIG2;
20003a8c:	fa800713          	li	a4,-88
20003a90:	04e78023          	sb	a4,64(a5)
HardFault_Handler():
D:/DATA/Electronic/MCU&MPU&DSP/32bit/«ﬂ∫„WCH/CH573_CH571/CH573EVT/EVT/EXAM/SRC/StdPeriphDriver/CH57x_sys.c:282
    sys_safe_access_enable();
    R16_INT32K_TUNE = 0xFFFF;
20003a94:	567d                	li	a2,-1
20003a96:	02c79623          	sh	a2,44(a5)
sys_safe_access_enable():
D:\DATA\Electronic\MCU&MPU&DSP\32bit\«ﬂ∫„WCH\CH573_CH571\CH573EVT\EVT\EXAM\SRC\StdPeriphDriver\inc/CH57x_sys.h:178
    R8_SAFE_ACCESS_SIG = SAFE_ACCESS_SIG1;
20003a9a:	04d78023          	sb	a3,64(a5)
D:\DATA\Electronic\MCU&MPU&DSP\32bit\«ﬂ∫„WCH\CH573_CH571\CH573EVT\EVT\EXAM\SRC\StdPeriphDriver\inc/CH57x_sys.h:179
    R8_SAFE_ACCESS_SIG = SAFE_ACCESS_SIG2;
20003a9e:	04e78023          	sb	a4,64(a5)
HardFault_Handler():
D:/DATA/Electronic/MCU&MPU&DSP/32bit/«ﬂ∫„WCH/CH573_CH571/CH573EVT/EVT/EXAM/SRC/StdPeriphDriver/CH57x_sys.c:284
    sys_safe_access_enable();
    R8_RST_WDOG_CTRL |= RB_SOFTWARE_RESET;
20003aa2:	0467c703          	lbu	a4,70(a5)
20003aa6:	00176713          	ori	a4,a4,1
20003aaa:	04e78323          	sb	a4,70(a5)
sys_safe_access_disable():
D:\DATA\Electronic\MCU&MPU&DSP\32bit\«ﬂ∫„WCH\CH573_CH571\CH573EVT\EVT\EXAM\SRC\StdPeriphDriver\inc/CH57x_sys.h:184
    R8_SAFE_ACCESS_SIG = 0;
20003aae:	04078023          	sb	zero,64(a5)
HardFault_Handler():
D:/DATA/Electronic/MCU&MPU&DSP/32bit/«ﬂ∫„WCH/CH573_CH571/CH573EVT/EVT/EXAM/SRC/StdPeriphDriver/CH57x_sys.c:286 (discriminator 1)
    sys_safe_access_disable();
    while(1);
20003ab2:	a001                	j	20003ab2 <HardFault_Handler+0x3c>

20003ab4 <mDelayuS>:
mDelayuS():
D:/DATA/Electronic/MCU&MPU&DSP/32bit/«ﬂ∫„WCH/CH573_CH571/CH573EVT/EVT/EXAM/SRC/StdPeriphDriver/CH57x_sys.c:303
__attribute__((section(".highcode")))
void mDelayuS(uint16_t t)
{
    uint32_t i;
#if(FREQ_SYS == 60000000)
    i = t * 15;
20003ab4:	47bd                	li	a5,15
20003ab6:	02f50533          	mul	a0,a0,a5
D:/DATA/Electronic/MCU&MPU&DSP/32bit/«ﬂ∫„WCH/CH573_CH571/CH573EVT/EVT/EXAM/SRC/StdPeriphDriver/CH57x_sys.c:325 (discriminator 1)
#elif(FREQ_SYS == 1000000)
    i = t >> 2;
#endif
    do
    {
        __nop();
20003aba:	0001                	nop
D:/DATA/Electronic/MCU&MPU&DSP/32bit/«ﬂ∫„WCH/CH573_CH571/CH573EVT/EVT/EXAM/SRC/StdPeriphDriver/CH57x_sys.c:326 (discriminator 1)
    } while(--i);
20003abc:	157d                	addi	a0,a0,-1
20003abe:	fd75                	bnez	a0,20003aba <mDelayuS+0x6>
D:/DATA/Electronic/MCU&MPU&DSP/32bit/«ﬂ∫„WCH/CH573_CH571/CH573EVT/EVT/EXAM/SRC/StdPeriphDriver/CH57x_sys.c:327
}
20003ac0:	8082                	ret

20003ac2 <mDelaymS>:
mDelaymS():
D:/DATA/Electronic/MCU&MPU&DSP/32bit/«ﬂ∫„WCH/CH573_CH571/CH573EVT/EVT/EXAM/SRC/StdPeriphDriver/CH57x_sys.c:340
 *
 * @return  none
 */
__attribute__((section(".highcode")))
void mDelaymS(uint16_t t)
{
20003ac2:	1141                	addi	sp,sp,-16
20003ac4:	c422                	sw	s0,8(sp)
20003ac6:	c226                	sw	s1,4(sp)
20003ac8:	c606                	sw	ra,12(sp)
20003aca:	84aa                	mv	s1,a0
D:/DATA/Electronic/MCU&MPU&DSP/32bit/«ﬂ∫„WCH/CH573_CH571/CH573EVT/EVT/EXAM/SRC/StdPeriphDriver/CH57x_sys.c:343
    uint16_t i;

    for(i = 0; i < t; i++)
20003acc:	4401                	li	s0,0
D:/DATA/Electronic/MCU&MPU&DSP/32bit/«ﬂ∫„WCH/CH573_CH571/CH573EVT/EVT/EXAM/SRC/StdPeriphDriver/CH57x_sys.c:343 (discriminator 1)
20003ace:	00941763          	bne	s0,s1,20003adc <mDelaymS+0x1a>
D:/DATA/Electronic/MCU&MPU&DSP/32bit/«ﬂ∫„WCH/CH573_CH571/CH573EVT/EVT/EXAM/SRC/StdPeriphDriver/CH57x_sys.c:347
    {
        mDelayuS(1000);
    }
}
20003ad2:	40b2                	lw	ra,12(sp)
20003ad4:	4422                	lw	s0,8(sp)
20003ad6:	4492                	lw	s1,4(sp)
20003ad8:	0141                	addi	sp,sp,16
20003ada:	8082                	ret
D:/DATA/Electronic/MCU&MPU&DSP/32bit/«ﬂ∫„WCH/CH573_CH571/CH573EVT/EVT/EXAM/SRC/StdPeriphDriver/CH57x_sys.c:343 (discriminator 3)
    for(i = 0; i < t; i++)
20003adc:	0405                	addi	s0,s0,1
D:/DATA/Electronic/MCU&MPU&DSP/32bit/«ﬂ∫„WCH/CH573_CH571/CH573EVT/EVT/EXAM/SRC/StdPeriphDriver/CH57x_sys.c:345 (discriminator 3)
        mDelayuS(1000);
20003ade:	3e800513          	li	a0,1000
D:/DATA/Electronic/MCU&MPU&DSP/32bit/«ﬂ∫„WCH/CH573_CH571/CH573EVT/EVT/EXAM/SRC/StdPeriphDriver/CH57x_sys.c:343 (discriminator 3)
    for(i = 0; i < t; i++)
20003ae2:	0442                	slli	s0,s0,0x10
D:/DATA/Electronic/MCU&MPU&DSP/32bit/«ﬂ∫„WCH/CH573_CH571/CH573EVT/EVT/EXAM/SRC/StdPeriphDriver/CH57x_sys.c:345 (discriminator 3)
        mDelayuS(1000);
20003ae4:	3fc1                	jal	20003ab4 <mDelayuS>
D:/DATA/Electronic/MCU&MPU&DSP/32bit/«ﬂ∫„WCH/CH573_CH571/CH573EVT/EVT/EXAM/SRC/StdPeriphDriver/CH57x_sys.c:343 (discriminator 3)
    for(i = 0; i < t; i++)
20003ae6:	8041                	srli	s0,s0,0x10
20003ae8:	b7dd                	j	20003ace <mDelaymS+0xc>

20003aea <FLASH_ROM_BEG>:
FLASH_ROM_BEG():
20003aea:	80040323          	sb	zero,-2042(s0)
20003aee:	4715                	li	a4,5
20003af0:	80e40323          	sb	a4,-2042(s0)
20003af4:	0001                	nop
20003af6:	80a40223          	sb	a0,-2044(s0)
20003afa:	8082                	ret

20003afc <FLASH_ROM_END>:
FLASH_ROM_END():
20003afc:	80640783          	lb	a5,-2042(s0)
20003b00:	fe07cee3          	bltz	a5,20003afc <FLASH_ROM_END>
20003b04:	80040323          	sb	zero,-2042(s0)
20003b08:	8082                	ret

20003b0a <FLASH_ROM_IN>:
FLASH_ROM_IN():
20003b0a:	80640783          	lb	a5,-2042(s0)
20003b0e:	fe07cee3          	bltz	a5,20003b0a <FLASH_ROM_IN>
20003b12:	80444503          	lbu	a0,-2044(s0)
20003b16:	8082                	ret

20003b18 <FLASH_ROM_OUT>:
FLASH_ROM_OUT():
20003b18:	80640783          	lb	a5,-2042(s0)
20003b1c:	fe07cee3          	bltz	a5,20003b18 <FLASH_ROM_OUT>
20003b20:	80a40223          	sb	a0,-2044(s0)
20003b24:	8082                	ret

20003b26 <FLASH_ROM_ADDR>:
FLASH_ROM_ADDR():
20003b26:	1141                	addi	sp,sp,-16
20003b28:	c426                	sw	s1,8(sp)
20003b2a:	c24a                	sw	s2,4(sp)
20003b2c:	c04e                	sw	s3,0(sp)
20003b2e:	c606                	sw	ra,12(sp)
20003b30:	0bf57713          	andi	a4,a0,191
20003b34:	47ad                	li	a5,11
20003b36:	89aa                	mv	s3,a0
20003b38:	892e                	mv	s2,a1
20003b3a:	4495                	li	s1,5
20003b3c:	00f70663          	beq	a4,a5,20003b48 <FLASH_ROM_ADDR+0x22>
20003b40:	4519                	li	a0,6
20003b42:	3765                	jal	20003aea <FLASH_ROM_BEG>
20003b44:	3f65                	jal	20003afc <FLASH_ROM_END>
20003b46:	448d                	li	s1,3
20003b48:	854e                	mv	a0,s3
20003b4a:	3745                	jal	20003aea <FLASH_ROM_BEG>
20003b4c:	59fd                	li	s3,-1
20003b4e:	14fd                	addi	s1,s1,-1
20003b50:	01349863          	bne	s1,s3,20003b60 <FLASH_ROM_ADDR+0x3a>
20003b54:	40b2                	lw	ra,12(sp)
20003b56:	44a2                	lw	s1,8(sp)
20003b58:	4912                	lw	s2,4(sp)
20003b5a:	4982                	lw	s3,0(sp)
20003b5c:	0141                	addi	sp,sp,16
20003b5e:	8082                	ret
20003b60:	01095513          	srli	a0,s2,0x10
20003b64:	0ff57513          	andi	a0,a0,255
20003b68:	3f45                	jal	20003b18 <FLASH_ROM_OUT>
20003b6a:	0922                	slli	s2,s2,0x8
20003b6c:	b7cd                	j	20003b4e <FLASH_ROM_ADDR+0x28>

20003b6e <FLASH_ROM_WAIT>:
FLASH_ROM_WAIT():
20003b6e:	1101                	addi	sp,sp,-32
20003b70:	cc26                	sw	s1,24(sp)
20003b72:	ce06                	sw	ra,28(sp)
20003b74:	000804b7          	lui	s1,0x80
20003b78:	3751                	jal	20003afc <FLASH_ROM_END>
20003b7a:	4515                	li	a0,5
20003b7c:	37bd                	jal	20003aea <FLASH_ROM_BEG>
20003b7e:	3771                	jal	20003b0a <FLASH_ROM_IN>
20003b80:	3769                	jal	20003b0a <FLASH_ROM_IN>
20003b82:	c62a                	sw	a0,12(sp)
20003b84:	3fa5                	jal	20003afc <FLASH_ROM_END>
20003b86:	4532                	lw	a0,12(sp)
20003b88:	00157793          	andi	a5,a0,1
20003b8c:	eb89                	bnez	a5,20003b9e <FLASH_ROM_WAIT+0x30>
20003b8e:	00156513          	ori	a0,a0,1
20003b92:	0ff57513          	andi	a0,a0,255
20003b96:	40f2                	lw	ra,28(sp)
20003b98:	44e2                	lw	s1,24(sp)
20003b9a:	6105                	addi	sp,sp,32
20003b9c:	8082                	ret
20003b9e:	14fd                	addi	s1,s1,-1
20003ba0:	fce9                	bnez	s1,20003b7a <FLASH_ROM_WAIT+0xc>
20003ba2:	4501                	li	a0,0
20003ba4:	bfcd                	j	20003b96 <FLASH_ROM_WAIT+0x28>

20003ba6 <FLASH_EEPROM_CMD>:
FLASH_EEPROM_CMD():
20003ba6:	7139                	addi	sp,sp,-64
20003ba8:	dc26                	sw	s1,56(sp)
20003baa:	da4a                	sw	s2,52(sp)
20003bac:	d84e                	sw	s3,48(sp)
20003bae:	d652                	sw	s4,44(sp)
20003bb0:	d456                	sw	s5,40(sp)
20003bb2:	d25a                	sw	s6,36(sp)
20003bb4:	d05e                	sw	s7,32(sp)
20003bb6:	de06                	sw	ra,60(sp)
20003bb8:	ce62                	sw	s8,28(sp)
20003bba:	cc66                	sw	s9,24(sp)
20003bbc:	e000e7b7          	lui	a5,0xe000e
20003bc0:	577d                	li	a4,-1
20003bc2:	0007aa83          	lw	s5,0(a5) # e000e000 <_eusrstack+0xc0006000>
20003bc6:	c622                	sw	s0,12(sp)
20003bc8:	0047aa03          	lw	s4,4(a5)
20003bcc:	18e7a023          	sw	a4,384(a5)
20003bd0:	18e7a223          	sw	a4,388(a5)
20003bd4:	400017b7          	lui	a5,0x40001
20003bd8:	05700713          	li	a4,87
20003bdc:	04e78023          	sb	a4,64(a5) # 40001040 <_eusrstack+0x1fff9040>
20003be0:	fa800713          	li	a4,-88
20003be4:	04e78023          	sb	a4,64(a5)
20003be8:	0447c783          	lbu	a5,68(a5)
20003bec:	ff750b93          	addi	s7,a0,-9
20003bf0:	84b6                	mv	s1,a3
20003bf2:	07e2                	slli	a5,a5,0x18
20003bf4:	0ffbfb93          	andi	s7,s7,255
20003bf8:	4685                	li	a3,1
20003bfa:	89aa                	mv	s3,a0
20003bfc:	8b2e                	mv	s6,a1
20003bfe:	8932                	mv	s2,a2
20003c00:	40002437          	lui	s0,0x40002
20003c04:	87e1                	srai	a5,a5,0x18
20003c06:	5701                	li	a4,-32
20003c08:	0176fa63          	bgeu	a3,s7,20003c1c <FLASH_EEPROM_CMD+0x76>
20003c0c:	00d50863          	beq	a0,a3,20003c1c <FLASH_EEPROM_CMD+0x76>
20003c10:	4689                	li	a3,2
20003c12:	02000713          	li	a4,32
20003c16:	00d51363          	bne	a0,a3,20003c1c <FLASH_EEPROM_CMD+0x76>
20003c1a:	5701                	li	a4,-32
20003c1c:	8fd9                	or	a5,a5,a4
20003c1e:	0ff7f793          	andi	a5,a5,255
20003c22:	40001cb7          	lui	s9,0x40001
20003c26:	04fc8223          	sb	a5,68(s9) # 40001044 <_eusrstack+0x1fff9044>
20003c2a:	4711                	li	a4,4
20003c2c:	80e40323          	sb	a4,-2042(s0) # 40001806 <_eusrstack+0x1fff9806>
20003c30:	0ff00513          	li	a0,255
20003c34:	3d5d                	jal	20003aea <FLASH_ROM_BEG>
20003c36:	4c09                	li	s8,2
20003c38:	35d1                	jal	20003afc <FLASH_ROM_END>
20003c3a:	117c6963          	bltu	s8,s7,20003d4c <FLASH_EEPROM_CMD+0x1a6>
20003c3e:	000707b7          	lui	a5,0x70
20003c42:	9b3e                	add	s6,s6,a5
20003c44:	00078737          	lui	a4,0x78
20003c48:	5579                	li	a0,-2
20003c4a:	02eb7e63          	bgeu	s6,a4,20003c86 <FLASH_EEPROM_CMD+0xe0>
20003c4e:	009b07b3          	add	a5,s6,s1
20003c52:	02f76a63          	bltu	a4,a5,20003c86 <FLASH_EEPROM_CMD+0xe0>
20003c56:	47a9                	li	a5,10
20003c58:	06f99963          	bne	s3,a5,20003cca <FLASH_EEPROM_CMD+0x124>
20003c5c:	e489                	bnez	s1,20003c66 <FLASH_EEPROM_CMD+0xc0>
20003c5e:	4481                	li	s1,0
20003c60:	3d71                	jal	20003afc <FLASH_ROM_END>
20003c62:	8526                	mv	a0,s1
20003c64:	a00d                	j	20003c86 <FLASH_EEPROM_CMD+0xe0>
20003c66:	85da                	mv	a1,s6
20003c68:	4509                	li	a0,2
20003c6a:	3d75                	jal	20003b26 <FLASH_ROM_ADDR>
20003c6c:	0905                	addi	s2,s2,1
20003c6e:	fff94503          	lbu	a0,-1(s2)
20003c72:	14fd                	addi	s1,s1,-1
20003c74:	0b05                	addi	s6,s6,1
20003c76:	354d                	jal	20003b18 <FLASH_ROM_OUT>
20003c78:	c481                	beqz	s1,20003c80 <FLASH_EEPROM_CMD+0xda>
20003c7a:	0ffb7793          	andi	a5,s6,255
20003c7e:	f7fd                	bnez	a5,20003c6c <FLASH_EEPROM_CMD+0xc6>
20003c80:	35fd                	jal	20003b6e <FLASH_ROM_WAIT>
20003c82:	fd69                	bnez	a0,20003c5c <FLASH_EEPROM_CMD+0xb6>
20003c84:	557d                	li	a0,-1
20003c86:	400017b7          	lui	a5,0x40001
20003c8a:	05700713          	li	a4,87
20003c8e:	04e78023          	sb	a4,64(a5) # 40001040 <_eusrstack+0x1fff9040>
20003c92:	fa800713          	li	a4,-88
20003c96:	04e78023          	sb	a4,64(a5)
20003c9a:	0447c703          	lbu	a4,68(a5)
20003c9e:	8b41                	andi	a4,a4,16
20003ca0:	04e78223          	sb	a4,68(a5)
20003ca4:	50f2                	lw	ra,60(sp)
20003ca6:	e000e7b7          	lui	a5,0xe000e
20003caa:	1157a023          	sw	s5,256(a5) # e000e100 <_eusrstack+0xc0006100>
20003cae:	1147a223          	sw	s4,260(a5)
20003cb2:	54e2                	lw	s1,56(sp)
20003cb4:	4432                	lw	s0,12(sp)
20003cb6:	5952                	lw	s2,52(sp)
20003cb8:	59c2                	lw	s3,48(sp)
20003cba:	5a32                	lw	s4,44(sp)
20003cbc:	5aa2                	lw	s5,40(sp)
20003cbe:	5b12                	lw	s6,36(sp)
20003cc0:	5b82                	lw	s7,32(sp)
20003cc2:	4c72                	lw	s8,28(sp)
20003cc4:	4ce2                	lw	s9,24(sp)
20003cc6:	6121                	addi	sp,sp,64
20003cc8:	8082                	ret
20003cca:	47a5                	li	a5,9
20003ccc:	06f99563          	bne	s3,a5,20003d36 <FLASH_EEPROM_CMD+0x190>
20003cd0:	6985                	lui	s3,0x1
20003cd2:	0ff00913          	li	s2,255
20003cd6:	009906b3          	add	a3,s2,s1
20003cda:	012b74b3          	and	s1,s6,s2
20003cde:	94b6                	add	s1,s1,a3
20003ce0:	fff94913          	not	s2,s2
20003ce4:	009974b3          	and	s1,s2,s1
20003ce8:	6b85                	lui	s7,0x1
20003cea:	01697933          	and	s2,s2,s6
20003cee:	6b41                	lui	s6,0x10
20003cf0:	fff98793          	addi	a5,s3,-1 # fff <__swsetup_r+0xf7>
20003cf4:	0127f7b3          	and	a5,a5,s2
20003cf8:	e399                	bnez	a5,20003cfe <FLASH_EEPROM_CMD+0x158>
20003cfa:	0134fc63          	bgeu	s1,s3,20003d12 <FLASH_EEPROM_CMD+0x16c>
20003cfe:	0049d993          	srli	s3,s3,0x4
20003d02:	47c1                	li	a5,16
20003d04:	ff37e6e3          	bltu	a5,s3,20003cf0 <FLASH_EEPROM_CMD+0x14a>
20003d08:	bf99                	j	20003c5e <FLASH_EEPROM_CMD+0xb8>
20003d0a:	6905                	lui	s2,0x1
20003d0c:	69c1                	lui	s3,0x10
20003d0e:	197d                	addi	s2,s2,-1
20003d10:	b7d9                	j	20003cd6 <FLASH_EEPROM_CMD+0x130>
20003d12:	0d800513          	li	a0,216
20003d16:	01698863          	beq	s3,s6,20003d26 <FLASH_EEPROM_CMD+0x180>
20003d1a:	02000513          	li	a0,32
20003d1e:	01798463          	beq	s3,s7,20003d26 <FLASH_EEPROM_CMD+0x180>
20003d22:	08100513          	li	a0,129
20003d26:	85ca                	mv	a1,s2
20003d28:	3bfd                	jal	20003b26 <FLASH_ROM_ADDR>
20003d2a:	3591                	jal	20003b6e <FLASH_ROM_WAIT>
20003d2c:	dd21                	beqz	a0,20003c84 <FLASH_EEPROM_CMD+0xde>
20003d2e:	994e                	add	s2,s2,s3
20003d30:	413484b3          	sub	s1,s1,s3
20003d34:	b7d9                	j	20003cfa <FLASH_EEPROM_CMD+0x154>
20003d36:	85da                	mv	a1,s6
20003d38:	452d                	li	a0,11
20003d3a:	33f5                	jal	20003b26 <FLASH_ROM_ADDR>
20003d3c:	94ca                	add	s1,s1,s2
20003d3e:	f29900e3          	beq	s2,s1,20003c5e <FLASH_EEPROM_CMD+0xb8>
20003d42:	0905                	addi	s2,s2,1
20003d44:	33d9                	jal	20003b0a <FLASH_ROM_IN>
20003d46:	fea90fa3          	sb	a0,-1(s2) # fff <__swsetup_r+0xf7>
20003d4a:	bfd5                	j	20003d3e <FLASH_EEPROM_CMD+0x198>
20003d4c:	fff98793          	addi	a5,s3,-1 # ffff <_data_lma+0xdf0f>
20003d50:	0ff7f793          	andi	a5,a5,255
20003d54:	08fc6c63          	bltu	s8,a5,20003dec <.loop401+0x54>
20003d58:	045cc703          	lbu	a4,69(s9)
20003d5c:	000807b7          	lui	a5,0x80
20003d60:	02077713          	andi	a4,a4,32
20003d64:	e319                	bnez	a4,20003d6a <FLASH_EEPROM_CMD+0x1c4>
20003d66:	000787b7          	lui	a5,0x78
20003d6a:	5579                	li	a0,-2
20003d6c:	f0fb7de3          	bgeu	s6,a5,20003c86 <FLASH_EEPROM_CMD+0xe0>
20003d70:	009b0733          	add	a4,s6,s1
20003d74:	f0e7e9e3          	bltu	a5,a4,20003c86 <FLASH_EEPROM_CMD+0xe0>
20003d78:	4789                	li	a5,2
20003d7a:	04f99063          	bne	s3,a5,20003dba <.loop401+0x22>
20003d7e:	8089                	srli	s1,s1,0x2
20003d80:	49d5                	li	s3,21
20003d82:	ec048ee3          	beqz	s1,20003c5e <FLASH_EEPROM_CMD+0xb8>
20003d86:	85da                	mv	a1,s6
20003d88:	4509                	li	a0,2
20003d8a:	3b71                	jal	20003b26 <FLASH_ROM_ADDR>
20003d8c:	0911                	addi	s2,s2,4
20003d8e:	ffc92703          	lw	a4,-4(s2)
20003d92:	4791                	li	a5,4
20003d94:	80e42023          	sw	a4,-2048(s0)

20003d98 <.loop401>:
20003d98:	80640703          	lb	a4,-2042(s0)
20003d9c:	fe074ee3          	bltz	a4,20003d98 <.loop401>
20003da0:	81340323          	sb	s3,-2042(s0)
20003da4:	17fd                	addi	a5,a5,-1
20003da6:	fbed                	bnez	a5,20003d98 <.loop401>
20003da8:	14fd                	addi	s1,s1,-1
20003daa:	0b11                	addi	s6,s6,4
20003dac:	c481                	beqz	s1,20003db4 <.loop401+0x1c>
20003dae:	0ffb7793          	andi	a5,s6,255
20003db2:	ffe9                	bnez	a5,20003d8c <FLASH_EEPROM_CMD+0x1e6>
20003db4:	3b6d                	jal	20003b6e <FLASH_ROM_WAIT>
20003db6:	f571                	bnez	a0,20003d82 <FLASH_EEPROM_CMD+0x1dc>
20003db8:	b5f1                	j	20003c84 <FLASH_EEPROM_CMD+0xde>
20003dba:	4785                	li	a5,1
20003dbc:	f4f987e3          	beq	s3,a5,20003d0a <FLASH_EEPROM_CMD+0x164>
20003dc0:	85da                	mv	a1,s6
20003dc2:	452d                	li	a0,11
20003dc4:	338d                	jal	20003b26 <FLASH_ROM_ADDR>
20003dc6:	fff48993          	addi	s3,s1,-1 # 7ffff <_data_lma+0x7df0f>
20003dca:	e8048ae3          	beqz	s1,20003c5e <FLASH_EEPROM_CMD+0xb8>
20003dce:	3b35                	jal	20003b0a <FLASH_ROM_IN>
20003dd0:	0039f793          	andi	a5,s3,3
20003dd4:	eb91                	bnez	a5,20003de8 <.loop401+0x50>
20003dd6:	80042683          	lw	a3,-2048(s0)
20003dda:	00092703          	lw	a4,0(s2)
20003dde:	00490793          	addi	a5,s2,4
20003de2:	e6e69fe3          	bne	a3,a4,20003c60 <FLASH_EEPROM_CMD+0xba>
20003de6:	893e                	mv	s2,a5
20003de8:	84ce                	mv	s1,s3
20003dea:	bff1                	j	20003dc6 <.loop401+0x2e>
20003dec:	47b5                	li	a5,13
20003dee:	00f99663          	bne	s3,a5,20003dfa <.loop401+0x62>
20003df2:	0b900513          	li	a0,185
20003df6:	39d5                	jal	20003aea <FLASH_ROM_BEG>
20003df8:	b59d                	j	20003c5e <FLASH_EEPROM_CMD+0xb8>
20003dfa:	47b1                	li	a5,12
20003dfc:	0ab00513          	li	a0,171
20003e00:	fef98be3          	beq	s3,a5,20003df6 <.loop401+0x5e>
20003e04:	4799                	li	a5,6
20003e06:	02f99e63          	bne	s3,a5,20003e42 <.loop401+0xaa>
20003e0a:	85da                	mv	a1,s6
20003e0c:	452d                	li	a0,11
20003e0e:	3b21                	jal	20003b26 <FLASH_ROM_ADDR>
20003e10:	4481                	li	s1,0
20003e12:	4b8d                	li	s7,3
20003e14:	49a1                	li	s3,8
20003e16:	39d5                	jal	20003b0a <FLASH_ROM_IN>
20003e18:	01749663          	bne	s1,s7,20003e24 <.loop401+0x8c>
20003e1c:	80042783          	lw	a5,-2048(s0)
20003e20:	00f92023          	sw	a5,0(s2)
20003e24:	0485                	addi	s1,s1,1
20003e26:	ff3498e3          	bne	s1,s3,20003e16 <.loop401+0x7e>
20003e2a:	80042783          	lw	a5,-2048(s0)
20003e2e:	012b1713          	slli	a4,s6,0x12
20003e32:	00075563          	bgez	a4,20003e3c <.loop401+0xa4>
20003e36:	00f91223          	sh	a5,4(s2)
20003e3a:	b515                	j	20003c5e <FLASH_EEPROM_CMD+0xb8>
20003e3c:	00f92223          	sw	a5,4(s2)
20003e40:	bd39                	j	20003c5e <FLASH_EEPROM_CMD+0xb8>
20003e42:	479d                	li	a5,7
20003e44:	02f99963          	bne	s3,a5,20003e76 <.loop401+0xde>
20003e48:	4581                	li	a1,0
20003e4a:	04b00513          	li	a0,75
20003e4e:	39e1                	jal	20003b26 <FLASH_ROM_ADDR>
20003e50:	44bd                	li	s1,15
20003e52:	00092023          	sw	zero,0(s2)
20003e56:	00092223          	sw	zero,4(s2)
20003e5a:	59fd                	li	s3,-1
20003e5c:	317d                	jal	20003b0a <FLASH_ROM_IN>
20003e5e:	0074f793          	andi	a5,s1,7
20003e62:	97ca                	add	a5,a5,s2
20003e64:	0007c703          	lbu	a4,0(a5) # 78000 <_data_lma+0x75f10>
20003e68:	14fd                	addi	s1,s1,-1
20003e6a:	8d39                	xor	a0,a0,a4
20003e6c:	00a78023          	sb	a0,0(a5)
20003e70:	ff3496e3          	bne	s1,s3,20003e5c <.loop401+0xc4>
20003e74:	b3ed                	j	20003c5e <FLASH_EEPROM_CMD+0xb8>
20003e76:	47a1                	li	a5,8
20003e78:	04f99263          	bne	s3,a5,20003ebc <.loop401+0x124>
20003e7c:	39cd                	jal	20003b6e <FLASH_ROM_WAIT>
20003e7e:	4481                	li	s1,0
20003e80:	000b0d63          	beqz	s6,20003e9a <.loop401+0x102>
20003e84:	478d                	li	a5,3
20003e86:	03c00493          	li	s1,60
20003e8a:	00fb0863          	beq	s6,a5,20003e9a <.loop401+0x102>
20003e8e:	05000493          	li	s1,80
20003e92:	018b0463          	beq	s6,s8,20003e9a <.loop401+0x102>
20003e96:	04400493          	li	s1,68
20003e9a:	07c57513          	andi	a0,a0,124
20003e9e:	dc9500e3          	beq	a0,s1,20003c5e <FLASH_EEPROM_CMD+0xb8>
20003ea2:	4519                	li	a0,6
20003ea4:	3199                	jal	20003aea <FLASH_ROM_BEG>
20003ea6:	3999                	jal	20003afc <FLASH_ROM_END>
20003ea8:	4505                	li	a0,1
20003eaa:	3181                	jal	20003aea <FLASH_ROM_BEG>
20003eac:	8526                	mv	a0,s1
20003eae:	31ad                	jal	20003b18 <FLASH_ROM_OUT>
20003eb0:	4509                	li	a0,2
20003eb2:	319d                	jal	20003b18 <FLASH_ROM_OUT>
20003eb4:	396d                	jal	20003b6e <FLASH_ROM_WAIT>
20003eb6:	da0514e3          	bnez	a0,20003c5e <FLASH_EEPROM_CMD+0xb8>
20003eba:	b3e9                	j	20003c84 <FLASH_EEPROM_CMD+0xde>
20003ebc:	4791                	li	a5,4
20003ebe:	00f99963          	bne	s3,a5,20003ed0 <.loop401+0x138>
20003ec2:	06600513          	li	a0,102
20003ec6:	3115                	jal	20003aea <FLASH_ROM_BEG>
20003ec8:	3915                	jal	20003afc <FLASH_ROM_END>
20003eca:	09900513          	li	a0,153
20003ece:	b725                	j	20003df6 <.loop401+0x5e>
20003ed0:	d80987e3          	beqz	s3,20003c5e <FLASH_EEPROM_CMD+0xb8>
20003ed4:	54f1                	li	s1,-4
20003ed6:	b369                	j	20003c60 <FLASH_EEPROM_CMD+0xba>

Disassembly of section .text:

000006dc <handle_reset>:
handle_reset():
D:/DATA/Electronic/MCU&MPU&DSP/32bit/«ﬂ∫„WCH/CH573_CH571/CH573EVT/EVT/EXAM/SRC/Startup/startup_CH573.S:116
	.weak	handle_reset
	.align	1
handle_reset:
.option push 
.option	norelax 
	la gp, __global_pointer$
     6dc:	20004197          	auipc	gp,0x20004
     6e0:	18418193          	addi	gp,gp,388 # 20004860 <__global_pointer$>
D:/DATA/Electronic/MCU&MPU&DSP/32bit/«ﬂ∫„WCH/CH573_CH571/CH573EVT/EVT/EXAM/SRC/Startup/startup_CH573.S:119
.option	pop 
1:
	la sp, _eusrstack 
     6e4:	20008117          	auipc	sp,0x20008
     6e8:	91c10113          	addi	sp,sp,-1764 # 20008000 <_eusrstack>
D:/DATA/Electronic/MCU&MPU&DSP/32bit/«ﬂ∫„WCH/CH573_CH571/CH573EVT/EVT/EXAM/SRC/Startup/startup_CH573.S:123

/* Load highcode code  section from flash to RAM */
2:
    la a0, _highcode_lma
     6ec:	00400513          	li	a0,4
D:/DATA/Electronic/MCU&MPU&DSP/32bit/«ﬂ∫„WCH/CH573_CH571/CH573EVT/EVT/EXAM/SRC/Startup/startup_CH573.S:124
    la a1, _highcode_vma_start
     6f0:	20003597          	auipc	a1,0x20003
     6f4:	11058593          	addi	a1,a1,272 # 20003800 <_highcode_vma_start>
D:/DATA/Electronic/MCU&MPU&DSP/32bit/«ﬂ∫„WCH/CH573_CH571/CH573EVT/EVT/EXAM/SRC/Startup/startup_CH573.S:125
    la a2, _highcode_vma_end
     6f8:	20003617          	auipc	a2,0x20003
     6fc:	7e060613          	addi	a2,a2,2016 # 20003ed8 <_highcode_vma_end>
D:/DATA/Electronic/MCU&MPU&DSP/32bit/«ﬂ∫„WCH/CH573_CH571/CH573EVT/EVT/EXAM/SRC/Startup/startup_CH573.S:126
    bgeu a1, a2, 2f
     700:	00c5fa63          	bgeu	a1,a2,714 <handle_reset+0x38>
D:/DATA/Electronic/MCU&MPU&DSP/32bit/«ﬂ∫„WCH/CH573_CH571/CH573EVT/EVT/EXAM/SRC/Startup/startup_CH573.S:128
1:
    lw t0, (a0)
     704:	00052283          	lw	t0,0(a0)
D:/DATA/Electronic/MCU&MPU&DSP/32bit/«ﬂ∫„WCH/CH573_CH571/CH573EVT/EVT/EXAM/SRC/Startup/startup_CH573.S:129
    sw t0, (a1)
     708:	0055a023          	sw	t0,0(a1)
D:/DATA/Electronic/MCU&MPU&DSP/32bit/«ﬂ∫„WCH/CH573_CH571/CH573EVT/EVT/EXAM/SRC/Startup/startup_CH573.S:130
    addi a0, a0, 4
     70c:	0511                	addi	a0,a0,4
D:/DATA/Electronic/MCU&MPU&DSP/32bit/«ﬂ∫„WCH/CH573_CH571/CH573EVT/EVT/EXAM/SRC/Startup/startup_CH573.S:131
    addi a1, a1, 4
     70e:	0591                	addi	a1,a1,4
D:/DATA/Electronic/MCU&MPU&DSP/32bit/«ﬂ∫„WCH/CH573_CH571/CH573EVT/EVT/EXAM/SRC/Startup/startup_CH573.S:132
    bltu a1, a2, 1b
     710:	fec5eae3          	bltu	a1,a2,704 <handle_reset+0x28>
D:/DATA/Electronic/MCU&MPU&DSP/32bit/«ﬂ∫„WCH/CH573_CH571/CH573EVT/EVT/EXAM/SRC/Startup/startup_CH573.S:136

/* Load data section from flash to RAM */
2:
	la a0, _data_lma
     714:	00002517          	auipc	a0,0x2
     718:	9dc50513          	addi	a0,a0,-1572 # 20f0 <_data_lma>
D:/DATA/Electronic/MCU&MPU&DSP/32bit/«ﬂ∫„WCH/CH573_CH571/CH573EVT/EVT/EXAM/SRC/Startup/startup_CH573.S:137
	la a1, _data_vma
     71c:	20004597          	auipc	a1,0x20004
     720:	8e458593          	addi	a1,a1,-1820 # 20004000 <_data_vma>
D:/DATA/Electronic/MCU&MPU&DSP/32bit/«ﬂ∫„WCH/CH573_CH571/CH573EVT/EVT/EXAM/SRC/Startup/startup_CH573.S:138
	la a2, _edata
     724:	80818613          	addi	a2,gp,-2040 # 20004068 <_edata>
D:/DATA/Electronic/MCU&MPU&DSP/32bit/«ﬂ∫„WCH/CH573_CH571/CH573EVT/EVT/EXAM/SRC/Startup/startup_CH573.S:139
	bgeu a1, a2, 2f
     728:	00c5fa63          	bgeu	a1,a2,73c <handle_reset+0x60>
D:/DATA/Electronic/MCU&MPU&DSP/32bit/«ﬂ∫„WCH/CH573_CH571/CH573EVT/EVT/EXAM/SRC/Startup/startup_CH573.S:141
1:
	lw t0, (a0)
     72c:	00052283          	lw	t0,0(a0)
D:/DATA/Electronic/MCU&MPU&DSP/32bit/«ﬂ∫„WCH/CH573_CH571/CH573EVT/EVT/EXAM/SRC/Startup/startup_CH573.S:142
	sw t0, (a1)
     730:	0055a023          	sw	t0,0(a1)
D:/DATA/Electronic/MCU&MPU&DSP/32bit/«ﬂ∫„WCH/CH573_CH571/CH573EVT/EVT/EXAM/SRC/Startup/startup_CH573.S:143
	addi a0, a0, 4
     734:	0511                	addi	a0,a0,4
D:/DATA/Electronic/MCU&MPU&DSP/32bit/«ﬂ∫„WCH/CH573_CH571/CH573EVT/EVT/EXAM/SRC/Startup/startup_CH573.S:144
	addi a1, a1, 4
     736:	0591                	addi	a1,a1,4
D:/DATA/Electronic/MCU&MPU&DSP/32bit/«ﬂ∫„WCH/CH573_CH571/CH573EVT/EVT/EXAM/SRC/Startup/startup_CH573.S:145
	bltu a1, a2, 1b
     738:	fec5eae3          	bltu	a1,a2,72c <handle_reset+0x50>
D:/DATA/Electronic/MCU&MPU&DSP/32bit/«ﬂ∫„WCH/CH573_CH571/CH573EVT/EVT/EXAM/SRC/Startup/startup_CH573.S:148
2:
	/* clear bss section */
	la a0, _sbss
     73c:	80818513          	addi	a0,gp,-2040 # 20004068 <_edata>
D:/DATA/Electronic/MCU&MPU&DSP/32bit/«ﬂ∫„WCH/CH573_CH571/CH573EVT/EVT/EXAM/SRC/Startup/startup_CH573.S:149
	la a1, _ebss
     740:	9ac18593          	addi	a1,gp,-1620 # 2000420c <_ebss>
D:/DATA/Electronic/MCU&MPU&DSP/32bit/«ﬂ∫„WCH/CH573_CH571/CH573EVT/EVT/EXAM/SRC/Startup/startup_CH573.S:150
	bgeu a0, a1, 2f
     744:	00b57763          	bgeu	a0,a1,752 <handle_reset+0x76>
D:/DATA/Electronic/MCU&MPU&DSP/32bit/«ﬂ∫„WCH/CH573_CH571/CH573EVT/EVT/EXAM/SRC/Startup/startup_CH573.S:152
1:
	sw zero, (a0)
     748:	00052023          	sw	zero,0(a0)
D:/DATA/Electronic/MCU&MPU&DSP/32bit/«ﬂ∫„WCH/CH573_CH571/CH573EVT/EVT/EXAM/SRC/Startup/startup_CH573.S:153
	addi a0, a0, 4
     74c:	0511                	addi	a0,a0,4
D:/DATA/Electronic/MCU&MPU&DSP/32bit/«ﬂ∫„WCH/CH573_CH571/CH573EVT/EVT/EXAM/SRC/Startup/startup_CH573.S:154
	bltu a0, a1, 1b
     74e:	feb56de3          	bltu	a0,a1,748 <handle_reset+0x6c>
D:/DATA/Electronic/MCU&MPU&DSP/32bit/«ﬂ∫„WCH/CH573_CH571/CH573EVT/EVT/EXAM/SRC/Startup/startup_CH573.S:156
2:
    li t0, 0x88
     752:	08800293          	li	t0,136
D:/DATA/Electronic/MCU&MPU&DSP/32bit/«ﬂ∫„WCH/CH573_CH571/CH573EVT/EVT/EXAM/SRC/Startup/startup_CH573.S:157
    csrs mstatus, t0
     756:	3002a073          	csrs	mstatus,t0
D:/DATA/Electronic/MCU&MPU&DSP/32bit/«ﬂ∫„WCH/CH573_CH571/CH573EVT/EVT/EXAM/SRC/Startup/startup_CH573.S:158
	la t0, _vector_base
     75a:	20003297          	auipc	t0,0x20003
     75e:	0a628293          	addi	t0,t0,166 # 20003800 <_highcode_vma_start>
D:/DATA/Electronic/MCU&MPU&DSP/32bit/«ﬂ∫„WCH/CH573_CH571/CH573EVT/EVT/EXAM/SRC/Startup/startup_CH573.S:159
    ori t0, t0, 1
     762:	0012e293          	ori	t0,t0,1
D:/DATA/Electronic/MCU&MPU&DSP/32bit/«ﬂ∫„WCH/CH573_CH571/CH573EVT/EVT/EXAM/SRC/Startup/startup_CH573.S:160
	csrw mtvec, t0
     766:	30529073          	csrw	mtvec,t0
D:/DATA/Electronic/MCU&MPU&DSP/32bit/«ﬂ∫„WCH/CH573_CH571/CH573EVT/EVT/EXAM/SRC/Startup/startup_CH573.S:161
	la t0, main
     76a:	00000297          	auipc	t0,0x0
     76e:	0e228293          	addi	t0,t0,226 # 84c <main>
D:/DATA/Electronic/MCU&MPU&DSP/32bit/«ﬂ∫„WCH/CH573_CH571/CH573EVT/EVT/EXAM/SRC/Startup/startup_CH573.S:162
	csrw mepc, t0
     772:	34129073          	csrw	mepc,t0
D:/DATA/Electronic/MCU&MPU&DSP/32bit/«ﬂ∫„WCH/CH573_CH571/CH573EVT/EVT/EXAM/SRC/Startup/startup_CH573.S:169
	/* enable vector relocation
	li t0, 0xE000ED14
	li t1, 1
	sw t1, 0(t0)*/
	
	mret
     776:	30200073          	mret

0000077a <memset>:
memset():
     77a:	433d                	li	t1,15
     77c:	872a                	mv	a4,a0
     77e:	02c37363          	bgeu	t1,a2,7a4 <memset+0x2a>
     782:	00f77793          	andi	a5,a4,15
     786:	efbd                	bnez	a5,804 <memset+0x8a>
     788:	e5ad                	bnez	a1,7f2 <memset+0x78>
     78a:	ff067693          	andi	a3,a2,-16
     78e:	8a3d                	andi	a2,a2,15
     790:	96ba                	add	a3,a3,a4
     792:	c30c                	sw	a1,0(a4)
     794:	c34c                	sw	a1,4(a4)
     796:	c70c                	sw	a1,8(a4)
     798:	c74c                	sw	a1,12(a4)
     79a:	0741                	addi	a4,a4,16
     79c:	fed76be3          	bltu	a4,a3,792 <memset+0x18>
     7a0:	e211                	bnez	a2,7a4 <memset+0x2a>
     7a2:	8082                	ret
     7a4:	40c306b3          	sub	a3,t1,a2
     7a8:	068a                	slli	a3,a3,0x2
     7aa:	00000297          	auipc	t0,0x0
     7ae:	9696                	add	a3,a3,t0
     7b0:	00a68067          	jr	10(a3) # 800a <_data_lma+0x5f1a>
     7b4:	00b70723          	sb	a1,14(a4) # 7800e <_data_lma+0x75f1e>
     7b8:	00b706a3          	sb	a1,13(a4)
     7bc:	00b70623          	sb	a1,12(a4)
     7c0:	00b705a3          	sb	a1,11(a4)
     7c4:	00b70523          	sb	a1,10(a4)
     7c8:	00b704a3          	sb	a1,9(a4)
     7cc:	00b70423          	sb	a1,8(a4)
     7d0:	00b703a3          	sb	a1,7(a4)
     7d4:	00b70323          	sb	a1,6(a4)
     7d8:	00b702a3          	sb	a1,5(a4)
     7dc:	00b70223          	sb	a1,4(a4)
     7e0:	00b701a3          	sb	a1,3(a4)
     7e4:	00b70123          	sb	a1,2(a4)
     7e8:	00b700a3          	sb	a1,1(a4)
     7ec:	00b70023          	sb	a1,0(a4)
     7f0:	8082                	ret
     7f2:	0ff5f593          	andi	a1,a1,255
     7f6:	00859693          	slli	a3,a1,0x8
     7fa:	8dd5                	or	a1,a1,a3
     7fc:	01059693          	slli	a3,a1,0x10
     800:	8dd5                	or	a1,a1,a3
     802:	b761                	j	78a <memset+0x10>
     804:	00279693          	slli	a3,a5,0x2
     808:	00000297          	auipc	t0,0x0
     80c:	9696                	add	a3,a3,t0
     80e:	8286                	mv	t0,ra
     810:	fa8680e7          	jalr	-88(a3)
     814:	8096                	mv	ra,t0
     816:	17c1                	addi	a5,a5,-16
     818:	8f1d                	sub	a4,a4,a5
     81a:	963e                	add	a2,a2,a5
     81c:	f8c374e3          	bgeu	t1,a2,7a4 <memset+0x2a>
     820:	b7a5                	j	788 <memset+0xe>

00000822 <DebugInit>:
DebugInit():
D:\DATA\Electronic\MCU&MPU&DSP\32bit\«ﬂ∫„WCH\CH573_CH571\CH573EVT\EVT\EXAM\TMR\obj/../src/Main.c:29
    GPIOA_SetBits(GPIO_Pin_9);
     822:	40001737          	lui	a4,0x40001
     826:	0a872783          	lw	a5,168(a4) # 400010a8 <_eusrstack+0x1fff90a8>
D:\DATA\Electronic\MCU&MPU&DSP\32bit\«ﬂ∫„WCH\CH573_CH571\CH573EVT\EVT\EXAM\TMR\obj/../src/Main.c:28
{
     82a:	1141                	addi	sp,sp,-16
     82c:	c606                	sw	ra,12(sp)
D:\DATA\Electronic\MCU&MPU&DSP\32bit\«ﬂ∫„WCH\CH573_CH571\CH573EVT\EVT\EXAM\TMR\obj/../src/Main.c:29
    GPIOA_SetBits(GPIO_Pin_9);
     82e:	2007e793          	ori	a5,a5,512
     832:	0af72423          	sw	a5,168(a4)
D:\DATA\Electronic\MCU&MPU&DSP\32bit\«ﬂ∫„WCH\CH573_CH571\CH573EVT\EVT\EXAM\TMR\obj/../src/Main.c:30
    GPIOA_ModeCfg(GPIO_Pin_8, GPIO_ModeIN_PU);
     836:	4585                	li	a1,1
     838:	10000513          	li	a0,256
     83c:	2255                	jal	9e0 <GPIOA_ModeCfg>
D:\DATA\Electronic\MCU&MPU&DSP\32bit\«ﬂ∫„WCH\CH573_CH571\CH573EVT\EVT\EXAM\TMR\obj/../src/Main.c:31
    GPIOA_ModeCfg(GPIO_Pin_9, GPIO_ModeOut_PP_5mA);
     83e:	458d                	li	a1,3
     840:	20000513          	li	a0,512
     844:	2a71                	jal	9e0 <GPIOA_ModeCfg>
D:\DATA\Electronic\MCU&MPU&DSP\32bit\«ﬂ∫„WCH\CH573_CH571\CH573EVT\EVT\EXAM\TMR\obj/../src/Main.c:33
}
     846:	40b2                	lw	ra,12(sp)
     848:	0141                	addi	sp,sp,16
D:\DATA\Electronic\MCU&MPU&DSP\32bit\«ﬂ∫„WCH\CH573_CH571\CH573EVT\EVT\EXAM\TMR\obj/../src/Main.c:32
    UART1_DefInit();
     84a:	a98d                	j	cbc <UART1_DefInit>

0000084c <main>:
main():
D:\DATA\Electronic\MCU&MPU&DSP\32bit\«ﬂ∫„WCH\CH573_CH571\CH573EVT\EVT\EXAM\TMR\obj/../src/Main.c:43
{
     84c:	1101                	addi	sp,sp,-32
D:\DATA\Electronic\MCU&MPU&DSP\32bit\«ﬂ∫„WCH\CH573_CH571\CH573EVT\EVT\EXAM\TMR\obj/../src/Main.c:46
    SetSysClock(CLK_SOURCE_PLL_60MHz);
     84e:	04800513          	li	a0,72
D:\DATA\Electronic\MCU&MPU&DSP\32bit\«ﬂ∫„WCH\CH573_CH571\CH573EVT\EVT\EXAM\TMR\obj/../src/Main.c:43
{
     852:	ce06                	sw	ra,28(sp)
     854:	cc22                	sw	s0,24(sp)
     856:	ca26                	sw	s1,20(sp)
D:\DATA\Electronic\MCU&MPU&DSP\32bit\«ﬂ∫„WCH\CH573_CH571\CH573EVT\EVT\EXAM\TMR\obj/../src/Main.c:50
    PRINT("Start @ChipID=%02X\n", R8_CHIP_ID);
     858:	40001437          	lui	s0,0x40001
D:\DATA\Electronic\MCU&MPU&DSP\32bit\«ﬂ∫„WCH\CH573_CH571\CH573EVT\EVT\EXAM\TMR\obj/../src/Main.c:43
{
     85c:	c84a                	sw	s2,16(sp)
     85e:	c64e                	sw	s3,12(sp)
     860:	c452                	sw	s4,8(sp)
D:\DATA\Electronic\MCU&MPU&DSP\32bit\«ﬂ∫„WCH\CH573_CH571\CH573EVT\EVT\EXAM\TMR\obj/../src/Main.c:46
    SetSysClock(CLK_SOURCE_PLL_60MHz);
     862:	20003097          	auipc	ra,0x20003
     866:	0e0080e7          	jalr	224(ra) # 20003942 <SetSysClock>
D:\DATA\Electronic\MCU&MPU&DSP\32bit\«ﬂ∫„WCH\CH573_CH571\CH573EVT\EVT\EXAM\TMR\obj/../src/Main.c:49
    DebugInit();
     86a:	3f65                	jal	822 <DebugInit>
D:\DATA\Electronic\MCU&MPU&DSP\32bit\«ﬂ∫„WCH\CH573_CH571\CH573EVT\EVT\EXAM\TMR\obj/../src/Main.c:50
    PRINT("Start @ChipID=%02X\n", R8_CHIP_ID);
     86c:	04144583          	lbu	a1,65(s0) # 40001041 <_eusrstack+0x1fff9041>
     870:	00001517          	auipc	a0,0x1
     874:	78c50513          	addi	a0,a0,1932 # 1ffc <_sbrk+0x20>
D:\DATA\Electronic\MCU&MPU&DSP\32bit\«ﬂ∫„WCH\CH573_CH571\CH573EVT\EVT\EXAM\TMR\obj/../src/Main.c:58
    TMR0_ITCfg(ENABLE, TMR0_3_IT_CYC_END); // ø™∆Ù÷–∂œ
     878:	400024b7          	lui	s1,0x40002
D:\DATA\Electronic\MCU&MPU&DSP\32bit\«ﬂ∫„WCH\CH573_CH571\CH573EVT\EVT\EXAM\TMR\obj/../src/Main.c:50
    PRINT("Start @ChipID=%02X\n", R8_CHIP_ID);
     87c:	298d                	jal	cee <iprintf>
D:\DATA\Electronic\MCU&MPU&DSP\32bit\«ﬂ∫„WCH\CH573_CH571\CH573EVT\EVT\EXAM\TMR\obj/../src/Main.c:54
    GPIOB_SetBits(GPIO_Pin_15);
     87e:	0c842783          	lw	a5,200(s0)
     882:	6721                	lui	a4,0x8
D:\DATA\Electronic\MCU&MPU&DSP\32bit\«ﬂ∫„WCH\CH573_CH571\CH573EVT\EVT\EXAM\TMR\obj/../src/Main.c:55
    GPIOB_ModeCfg(GPIO_Pin_15, GPIO_ModeOut_PP_5mA);
     884:	458d                	li	a1,3
D:\DATA\Electronic\MCU&MPU&DSP\32bit\«ﬂ∫„WCH\CH573_CH571\CH573EVT\EVT\EXAM\TMR\obj/../src/Main.c:54
    GPIOB_SetBits(GPIO_Pin_15);
     886:	8fd9                	or	a5,a5,a4
     888:	0cf42423          	sw	a5,200(s0)
D:\DATA\Electronic\MCU&MPU&DSP\32bit\«ﬂ∫„WCH\CH573_CH571\CH573EVT\EVT\EXAM\TMR\obj/../src/Main.c:55
    GPIOB_ModeCfg(GPIO_Pin_15, GPIO_ModeOut_PP_5mA);
     88c:	6521                	lui	a0,0x8
     88e:	2ae5                	jal	a86 <GPIOB_ModeCfg>
D:\DATA\Electronic\MCU&MPU&DSP\32bit\«ﬂ∫„WCH\CH573_CH571\CH573EVT\EVT\EXAM\TMR\obj/../src/Main.c:57
    TMR0_TimerInit(FREQ_SYS / 10);         // …Ë÷√∂® ± ±º‰ 100ms
     890:	005b9537          	lui	a0,0x5b9
     894:	d8050513          	addi	a0,a0,-640 # 5b8d80 <_data_lma+0x5b6c90>
     898:	2e95                	jal	c0c <TMR0_TimerInit>
D:\DATA\Electronic\MCU&MPU&DSP\32bit\«ﬂ∫„WCH\CH573_CH571\CH573EVT\EVT\EXAM\TMR\obj/../src/Main.c:58
    TMR0_ITCfg(ENABLE, TMR0_3_IT_CYC_END); // ø™∆Ù÷–∂œ
     89a:	0024c783          	lbu	a5,2(s1) # 40002002 <_eusrstack+0x1fffa002>
PFIC_EnableIRQ():
D:\DATA\Electronic\MCU&MPU&DSP\32bit\«ﬂ∫„WCH\CH573_CH571\CH573EVT\EVT\EXAM\SRC\RVMSIS/core_riscv.h:99
 *
 * @param   IRQn    - Interrupt Numbers
 */
RV_STATIC_INLINE void PFIC_EnableIRQ(IRQn_Type IRQn)
{
    PFIC->IENR[((uint32_t)(IRQn) >> 5)] = (1 << ((uint32_t)(IRQn)&0x1F));
     89e:	e000e937          	lui	s2,0xe000e
main():
D:\DATA\Electronic\MCU&MPU&DSP\32bit\«ﬂ∫„WCH\CH573_CH571\CH573EVT\EVT\EXAM\TMR\obj/../src/Main.c:64
    GPIOB_ResetBits(GPIO_Pin_22); // ≈‰÷√PWMø⁄ PB22
     8a2:	00400737          	lui	a4,0x400
D:\DATA\Electronic\MCU&MPU&DSP\32bit\«ﬂ∫„WCH\CH573_CH571\CH573EVT\EVT\EXAM\TMR\obj/../src/Main.c:58
    TMR0_ITCfg(ENABLE, TMR0_3_IT_CYC_END); // ø™∆Ù÷–∂œ
     8a6:	0017e793          	ori	a5,a5,1
     8aa:	00f48123          	sb	a5,2(s1)
PFIC_EnableIRQ():
D:\DATA\Electronic\MCU&MPU&DSP\32bit\«ﬂ∫„WCH\CH573_CH571\CH573EVT\EVT\EXAM\SRC\RVMSIS/core_riscv.h:99
     8ae:	67c1                	lui	a5,0x10
     8b0:	10f92023          	sw	a5,256(s2) # e000e100 <_eusrstack+0xc0006100>
main():
D:\DATA\Electronic\MCU&MPU&DSP\32bit\«ﬂ∫„WCH\CH573_CH571\CH573EVT\EVT\EXAM\TMR\obj/../src/Main.c:64
    GPIOB_ResetBits(GPIO_Pin_22); // ≈‰÷√PWMø⁄ PB22
     8b4:	0cc42783          	lw	a5,204(s0)
D:\DATA\Electronic\MCU&MPU&DSP\32bit\«ﬂ∫„WCH\CH573_CH571\CH573EVT\EVT\EXAM\TMR\obj/../src/Main.c:65
    GPIOB_ModeCfg(GPIO_Pin_22, GPIO_ModeOut_PP_5mA);
     8b8:	458d                	li	a1,3
     8ba:	00400537          	lui	a0,0x400
D:\DATA\Electronic\MCU&MPU&DSP\32bit\«ﬂ∫„WCH\CH573_CH571\CH573EVT\EVT\EXAM\TMR\obj/../src/Main.c:64
    GPIOB_ResetBits(GPIO_Pin_22); // ≈‰÷√PWMø⁄ PB22
     8be:	8fd9                	or	a5,a5,a4
     8c0:	0cf42623          	sw	a5,204(s0)
D:\DATA\Electronic\MCU&MPU&DSP\32bit\«ﬂ∫„WCH\CH573_CH571\CH573EVT\EVT\EXAM\TMR\obj/../src/Main.c:65
    GPIOB_ModeCfg(GPIO_Pin_22, GPIO_ModeOut_PP_5mA);
     8c4:	22c9                	jal	a86 <GPIOB_ModeCfg>
D:\DATA\Electronic\MCU&MPU&DSP\32bit\«ﬂ∫„WCH\CH573_CH571\CH573EVT\EVT\EXAM\TMR\obj/../src/Main.c:67
    TMR3_PWMInit(High_Level, PWM_Times_1);
     8c6:	4581                	li	a1,0
     8c8:	4501                	li	a0,0
     8ca:	266d                	jal	c74 <TMR3_PWMInit>
D:\DATA\Electronic\MCU&MPU&DSP\32bit\«ﬂ∫„WCH\CH573_CH571\CH573EVT\EVT\EXAM\TMR\obj/../src/Main.c:68
    TMR3_PWMCycleCfg(6000); // ÷‹∆⁄ 100us
     8cc:	6705                	lui	a4,0x1
     8ce:	400037b7          	lui	a5,0x40003
     8d2:	77070693          	addi	a3,a4,1904 # 1770 <_vfiprintf_r+0xa4>
     8d6:	c0d7a623          	sw	a3,-1012(a5) # 40002c0c <_eusrstack+0x1fffac0c>
D:\DATA\Electronic\MCU&MPU&DSP\32bit\«ﬂ∫„WCH\CH573_CH571\CH573EVT\EVT\EXAM\TMR\obj/../src/Main.c:69
    TMR3_Disable();
     8da:	c007c683          	lbu	a3,-1024(a5)
D:\DATA\Electronic\MCU&MPU&DSP\32bit\«ﬂ∫„WCH\CH573_CH571\CH573EVT\EVT\EXAM\TMR\obj/../src/Main.c:70
    TMR3_PWMActDataWidth(3000); // ’ºø’±» 50%, –ﬁ∏ƒ’ºø’±»±ÿ–Î‘› ±πÿ±’∂® ±∆˜
     8de:	bb870713          	addi	a4,a4,-1096
D:\DATA\Electronic\MCU&MPU&DSP\32bit\«ﬂ∫„WCH\CH573_CH571\CH573EVT\EVT\EXAM\TMR\obj/../src/Main.c:76
    PWR_UnitModCfg(DISABLE, UNIT_SYS_LSE); // ◊¢“‚¥À“˝Ω≈ «LSEæß’Ò“˝Ω≈£¨“™±£÷§πÿ±’≤≈ƒ‹ π”√∆‰À˚π¶ƒ‹
     8e2:	4585                	li	a1,1
D:\DATA\Electronic\MCU&MPU&DSP\32bit\«ﬂ∫„WCH\CH573_CH571\CH573EVT\EVT\EXAM\TMR\obj/../src/Main.c:69
    TMR3_Disable();
     8e4:	0fb6f693          	andi	a3,a3,251
     8e8:	c0d78023          	sb	a3,-1024(a5)
D:\DATA\Electronic\MCU&MPU&DSP\32bit\«ﬂ∫„WCH\CH573_CH571\CH573EVT\EVT\EXAM\TMR\obj/../src/Main.c:70
    TMR3_PWMActDataWidth(3000); // ’ºø’±» 50%, –ﬁ∏ƒ’ºø’±»±ÿ–Î‘› ±πÿ±’∂® ±∆˜
     8ec:	c0e7a823          	sw	a4,-1008(a5)
D:\DATA\Electronic\MCU&MPU&DSP\32bit\«ﬂ∫„WCH\CH573_CH571\CH573EVT\EVT\EXAM\TMR\obj/../src/Main.c:71
    TMR3_Enable();
     8f0:	c007c703          	lbu	a4,-1024(a5)
D:\DATA\Electronic\MCU&MPU&DSP\32bit\«ﬂ∫„WCH\CH573_CH571\CH573EVT\EVT\EXAM\TMR\obj/../src/Main.c:76
    PWR_UnitModCfg(DISABLE, UNIT_SYS_LSE); // ◊¢“‚¥À“˝Ω≈ «LSEæß’Ò“˝Ω≈£¨“™±£÷§πÿ±’≤≈ƒ‹ π”√∆‰À˚π¶ƒ‹
     8f4:	4501                	li	a0,0
D:\DATA\Electronic\MCU&MPU&DSP\32bit\«ﬂ∫„WCH\CH573_CH571\CH573EVT\EVT\EXAM\TMR\obj/../src/Main.c:71
    TMR3_Enable();
     8f6:	00476713          	ori	a4,a4,4
     8fa:	c0e78023          	sb	a4,-1024(a5)
D:\DATA\Electronic\MCU&MPU&DSP\32bit\«ﬂ∫„WCH\CH573_CH571\CH573EVT\EVT\EXAM\TMR\obj/../src/Main.c:76
    PWR_UnitModCfg(DISABLE, UNIT_SYS_LSE); // ◊¢“‚¥À“˝Ω≈ «LSEæß’Ò“˝Ω≈£¨“™±£÷§πÿ±’≤≈ƒ‹ π”√∆‰À˚π¶ƒ‹
     8fe:	24a1                	jal	b46 <PWR_UnitModCfg>
D:\DATA\Electronic\MCU&MPU&DSP\32bit\«ﬂ∫„WCH\CH573_CH571\CH573EVT\EVT\EXAM\TMR\obj/../src/Main.c:77
    GPIOA_ResetBits(GPIO_Pin_10);          // ≈‰÷√PWMø⁄ PA10
     900:	0ac42783          	lw	a5,172(s0)
D:\DATA\Electronic\MCU&MPU&DSP\32bit\«ﬂ∫„WCH\CH573_CH571\CH573EVT\EVT\EXAM\TMR\obj/../src/Main.c:78
    GPIOA_ModeCfg(GPIO_Pin_10, GPIO_ModeIN_PU);
     904:	4585                	li	a1,1
     906:	40000513          	li	a0,1024
D:\DATA\Electronic\MCU&MPU&DSP\32bit\«ﬂ∫„WCH\CH573_CH571\CH573EVT\EVT\EXAM\TMR\obj/../src/Main.c:77
    GPIOA_ResetBits(GPIO_Pin_10);          // ≈‰÷√PWMø⁄ PA10
     90a:	4007e793          	ori	a5,a5,1024
     90e:	0af42623          	sw	a5,172(s0)
D:\DATA\Electronic\MCU&MPU&DSP\32bit\«ﬂ∫„WCH\CH573_CH571\CH573EVT\EVT\EXAM\TMR\obj/../src/Main.c:78
    GPIOA_ModeCfg(GPIO_Pin_10, GPIO_ModeIN_PU);
     912:	20f9                	jal	9e0 <GPIOA_ModeCfg>
D:\DATA\Electronic\MCU&MPU&DSP\32bit\«ﬂ∫„WCH\CH573_CH571\CH573EVT\EVT\EXAM\TMR\obj/../src/Main.c:80
    TMR1_CapInit(Edge_To_Edge);
     914:	4505                	li	a0,1
     916:	2629                	jal	c20 <TMR1_CapInit>
D:\DATA\Electronic\MCU&MPU&DSP\32bit\«ﬂ∫„WCH\CH573_CH571\CH573EVT\EVT\EXAM\TMR\obj/../src/Main.c:82
    TMR1_DMACfg(ENABLE, (uint16_t)(uint32_t)&CapBuf[0], (uint16_t)(uint32_t)&CapBuf[100], Mode_Single);
     918:	9a818413          	addi	s0,gp,-1624 # 20004208 <errno>
     91c:	81818593          	addi	a1,gp,-2024 # 20004078 <CapBuf>
D:\DATA\Electronic\MCU&MPU&DSP\32bit\«ﬂ∫„WCH\CH573_CH571\CH573EVT\EVT\EXAM\TMR\obj/../src/Main.c:81
    TMR1_CAPTimeoutCfg(0xFFFFFFFF); // …Ë÷√≤∂◊Ω≥¨ ± ±º‰
     920:	57fd                	li	a5,-1
D:\DATA\Electronic\MCU&MPU&DSP\32bit\«ﬂ∫„WCH\CH573_CH571\CH573EVT\EVT\EXAM\TMR\obj/../src/Main.c:82
    TMR1_DMACfg(ENABLE, (uint16_t)(uint32_t)&CapBuf[0], (uint16_t)(uint32_t)&CapBuf[100], Mode_Single);
     922:	01041613          	slli	a2,s0,0x10
     926:	05c2                	slli	a1,a1,0x10
D:\DATA\Electronic\MCU&MPU&DSP\32bit\«ﬂ∫„WCH\CH573_CH571\CH573EVT\EVT\EXAM\TMR\obj/../src/Main.c:81
    TMR1_CAPTimeoutCfg(0xFFFFFFFF); // …Ë÷√≤∂◊Ω≥¨ ± ±º‰
     928:	40f4a623          	sw	a5,1036(s1)
D:\DATA\Electronic\MCU&MPU&DSP\32bit\«ﬂ∫„WCH\CH573_CH571\CH573EVT\EVT\EXAM\TMR\obj/../src/Main.c:82
    TMR1_DMACfg(ENABLE, (uint16_t)(uint32_t)&CapBuf[0], (uint16_t)(uint32_t)&CapBuf[100], Mode_Single);
     92c:	4681                	li	a3,0
     92e:	8241                	srli	a2,a2,0x10
     930:	81c1                	srli	a1,a1,0x10
     932:	4505                	li	a0,1
     934:	2619                	jal	c3a <TMR1_DMACfg>
D:\DATA\Electronic\MCU&MPU&DSP\32bit\«ﬂ∫„WCH\CH573_CH571\CH573EVT\EVT\EXAM\TMR\obj/../src/Main.c:83
    TMR1_ITCfg(ENABLE, TMR1_2_IT_DMA_END); // ø™∆ÙDMAÕÍ≥…÷–∂œ
     936:	4024c783          	lbu	a5,1026(s1)
D:\DATA\Electronic\MCU&MPU&DSP\32bit\«ﬂ∫„WCH\CH573_CH571\CH573EVT\EVT\EXAM\TMR\obj/../src/Main.c:86
    while(capFlag == 0);
     93a:	80818713          	addi	a4,gp,-2040 # 20004068 <_edata>
D:\DATA\Electronic\MCU&MPU&DSP\32bit\«ﬂ∫„WCH\CH573_CH571\CH573EVT\EVT\EXAM\TMR\obj/../src/Main.c:83
    TMR1_ITCfg(ENABLE, TMR1_2_IT_DMA_END); // ø™∆ÙDMAÕÍ≥…÷–∂œ
     93e:	0087e793          	ori	a5,a5,8
     942:	40f48123          	sb	a5,1026(s1)
PFIC_EnableIRQ():
D:\DATA\Electronic\MCU&MPU&DSP\32bit\«ﬂ∫„WCH\CH573_CH571\CH573EVT\EVT\EXAM\SRC\RVMSIS/core_riscv.h:99
     946:	010007b7          	lui	a5,0x1000
     94a:	10f92023          	sw	a5,256(s2)
main():
D:\DATA\Electronic\MCU&MPU&DSP\32bit\«ﬂ∫„WCH\CH573_CH571\CH573EVT\EVT\EXAM\TMR\obj/../src/Main.c:86 (discriminator 1)
    while(capFlag == 0);
     94e:	00074783          	lbu	a5,0(a4)
     952:	0ff7f793          	andi	a5,a5,255
     956:	dfe5                	beqz	a5,94e <main+0x102>
D:\DATA\Electronic\MCU&MPU&DSP\32bit\«ﬂ∫„WCH\CH573_CH571\CH573EVT\EVT\EXAM\TMR\obj/../src/Main.c:90
        PRINT("%08ld ", CapBuf[i] & 0x1ffffff); // 26bit, ◊Ó∏ﬂŒª±Ì æ ∏ﬂµÁ∆Ωªπ «µÕµÁ∆Ω
     958:	02000937          	lui	s2,0x2000
D:\DATA\Electronic\MCU&MPU&DSP\32bit\«ﬂ∫„WCH\CH573_CH571\CH573EVT\EVT\EXAM\TMR\obj/../src/Main.c:87
    capFlag = 0;
     95c:	80018423          	sb	zero,-2040(gp) # 20004068 <_edata>
D:\DATA\Electronic\MCU&MPU&DSP\32bit\«ﬂ∫„WCH\CH573_CH571\CH573EVT\EVT\EXAM\TMR\obj/../src/Main.c:88
    for(i = 0; i < 100; i++)
     960:	81818493          	addi	s1,gp,-2024 # 20004078 <CapBuf>
D:\DATA\Electronic\MCU&MPU&DSP\32bit\«ﬂ∫„WCH\CH573_CH571\CH573EVT\EVT\EXAM\TMR\obj/../src/Main.c:90
        PRINT("%08ld ", CapBuf[i] & 0x1ffffff); // 26bit, ◊Ó∏ﬂŒª±Ì æ ∏ﬂµÁ∆Ωªπ «µÕµÁ∆Ω
     964:	fff90a13          	addi	s4,s2,-1 # 1ffffff <_data_lma+0x1ffdf0f>
     968:	00001997          	auipc	s3,0x1
     96c:	6a898993          	addi	s3,s3,1704 # 2010 <_sbrk+0x34>
D:\DATA\Electronic\MCU&MPU&DSP\32bit\«ﬂ∫„WCH\CH573_CH571\CH573EVT\EVT\EXAM\TMR\obj/../src/Main.c:90 (discriminator 3)
     970:	408c                	lw	a1,0(s1)
     972:	854e                	mv	a0,s3
     974:	0491                	addi	s1,s1,4
     976:	0145f5b3          	and	a1,a1,s4
     97a:	2e95                	jal	cee <iprintf>
D:\DATA\Electronic\MCU&MPU&DSP\32bit\«ﬂ∫„WCH\CH573_CH571\CH573EVT\EVT\EXAM\TMR\obj/../src/Main.c:88 (discriminator 3)
    for(i = 0; i < 100; i++)
     97c:	fe849ae3          	bne	s1,s0,970 <main+0x124>
D:\DATA\Electronic\MCU&MPU&DSP\32bit\«ﬂ∫„WCH\CH573_CH571\CH573EVT\EVT\EXAM\TMR\obj/../src/Main.c:92
    PRINT("\n");
     980:	4529                	li	a0,10
     982:	2e45                	jal	d32 <putchar>
D:\DATA\Electronic\MCU&MPU&DSP\32bit\«ﬂ∫„WCH\CH573_CH571\CH573EVT\EVT\EXAM\TMR\obj/../src/Main.c:97
    GPIOB_ModeCfg(GPIO_Pin_11, GPIO_ModeIN_PD);
     984:	6505                	lui	a0,0x1
     986:	4589                	li	a1,2
     988:	80050513          	addi	a0,a0,-2048 # 800 <memset+0x86>
     98c:	28ed                	jal	a86 <GPIOB_ModeCfg>
D:\DATA\Electronic\MCU&MPU&DSP\32bit\«ﬂ∫„WCH\CH573_CH571\CH573EVT\EVT\EXAM\TMR\obj/../src/Main.c:98
    GPIOPinRemap(ENABLE, RB_PIN_TMR2);
     98e:	4591                	li	a1,4
     990:	4505                	li	a0,1
     992:	2a69                	jal	b2c <GPIOPinRemap>
D:\DATA\Electronic\MCU&MPU&DSP\32bit\«ﬂ∫„WCH\CH573_CH571\CH573EVT\EVT\EXAM\TMR\obj/../src/Main.c:100
    TMR2_EXTSingleCounterInit(FallEdge_To_FallEdge);
     994:	4509                	li	a0,2
     996:	24d1                	jal	c5a <TMR2_EXTSingleCounterInit>
D:\DATA\Electronic\MCU&MPU&DSP\32bit\«ﬂ∫„WCH\CH573_CH571\CH573EVT\EVT\EXAM\TMR\obj/../src/Main.c:101
    TMR2_CountOverflowCfg(1000); // …Ë÷√º∆ ˝…œœﬁ1000
     998:	400037b7          	lui	a5,0x40003
     99c:	3ea00713          	li	a4,1002
     9a0:	80e7a623          	sw	a4,-2036(a5) # 4000280c <_eusrstack+0x1fffa80c>
D:\DATA\Electronic\MCU&MPU&DSP\32bit\«ﬂ∫„WCH\CH573_CH571\CH573EVT\EVT\EXAM\TMR\obj/../src/Main.c:104
    TMR2_ClearITFlag(TMR0_3_IT_CYC_END);
     9a4:	4705                	li	a4,1
     9a6:	80e78323          	sb	a4,-2042(a5)
PFIC_EnableIRQ():
D:\DATA\Electronic\MCU&MPU&DSP\32bit\«ﬂ∫„WCH\CH573_CH571\CH573EVT\EVT\EXAM\SRC\RVMSIS/core_riscv.h:99
     9aa:	e000e737          	lui	a4,0xe000e
     9ae:	11272023          	sw	s2,256(a4) # e000e100 <_eusrstack+0xc0006100>
main():
D:\DATA\Electronic\MCU&MPU&DSP\32bit\«ﬂ∫„WCH\CH573_CH571\CH573EVT\EVT\EXAM\TMR\obj/../src/Main.c:106
    TMR2_ITCfg(ENABLE, TMR0_3_IT_CYC_END);
     9b2:	8027c703          	lbu	a4,-2046(a5)
D:\DATA\Electronic\MCU&MPU&DSP\32bit\«ﬂ∫„WCH\CH573_CH571\CH573EVT\EVT\EXAM\TMR\obj/../src/Main.c:112
        PRINT("=%ld \n", TMR2_GetCurrentCount());
     9b6:	400034b7          	lui	s1,0x40003
     9ba:	00001417          	auipc	s0,0x1
     9be:	65e40413          	addi	s0,s0,1630 # 2018 <_sbrk+0x3c>
D:\DATA\Electronic\MCU&MPU&DSP\32bit\«ﬂ∫„WCH\CH573_CH571\CH573EVT\EVT\EXAM\TMR\obj/../src/Main.c:106
    TMR2_ITCfg(ENABLE, TMR0_3_IT_CYC_END);
     9c2:	00176713          	ori	a4,a4,1
     9c6:	80e78123          	sb	a4,-2046(a5)
D:\DATA\Electronic\MCU&MPU&DSP\32bit\«ﬂ∫„WCH\CH573_CH571\CH573EVT\EVT\EXAM\TMR\obj/../src/Main.c:111 (discriminator 1)
        mDelaymS(1000);
     9ca:	3e800513          	li	a0,1000
     9ce:	20003097          	auipc	ra,0x20003
     9d2:	0f4080e7          	jalr	244(ra) # 20003ac2 <mDelaymS>
D:\DATA\Electronic\MCU&MPU&DSP\32bit\«ﬂ∫„WCH\CH573_CH571\CH573EVT\EVT\EXAM\TMR\obj/../src/Main.c:112 (discriminator 1)
        PRINT("=%ld \n", TMR2_GetCurrentCount());
     9d6:	8084a583          	lw	a1,-2040(s1) # 40002808 <_eusrstack+0x1fffa808>
     9da:	8522                	mv	a0,s0
     9dc:	2e09                	jal	cee <iprintf>
     9de:	b7f5                	j	9ca <main+0x17e>

000009e0 <GPIOA_ModeCfg>:
GPIOA_ModeCfg():
D:/DATA/Electronic/MCU&MPU&DSP/32bit/«ﬂ∫„WCH/CH573_CH571/CH573EVT/EVT/EXAM/SRC/StdPeriphDriver/CH57x_gpio.c:27
 *
 * @return  none
 */
void GPIOA_ModeCfg(uint32_t pin, GPIOModeTypeDef mode)
{
    switch(mode)
     9e0:	4791                	li	a5,4
     9e2:	02b7ee63          	bltu	a5,a1,a1e <GPIOA_ModeCfg+0x3e>
     9e6:	00001717          	auipc	a4,0x1
     9ea:	64270713          	addi	a4,a4,1602 # 2028 <_sbrk+0x4c>
     9ee:	058a                	slli	a1,a1,0x2
     9f0:	95ba                	add	a1,a1,a4
     9f2:	419c                	lw	a5,0(a1)
     9f4:	97ba                	add	a5,a5,a4
     9f6:	8782                	jr	a5
D:/DATA/Electronic/MCU&MPU&DSP/32bit/«ﬂ∫„WCH/CH573_CH571/CH573EVT/EVT/EXAM/SRC/StdPeriphDriver/CH57x_gpio.c:30
    {
        case GPIO_ModeIN_Floating:
            R32_PA_PD_DRV &= ~pin;
     9f8:	400017b7          	lui	a5,0x40001
     9fc:	0b47a703          	lw	a4,180(a5) # 400010b4 <_eusrstack+0x1fff90b4>
     a00:	fff54513          	not	a0,a0
     a04:	8f69                	and	a4,a4,a0
     a06:	0ae7aa23          	sw	a4,180(a5)
D:/DATA/Electronic/MCU&MPU&DSP/32bit/«ﬂ∫„WCH/CH573_CH571/CH573EVT/EVT/EXAM/SRC/StdPeriphDriver/CH57x_gpio.c:31
            R32_PA_PU &= ~pin;
     a0a:	0b07a703          	lw	a4,176(a5)
D:/DATA/Electronic/MCU&MPU&DSP/32bit/«ﬂ∫„WCH/CH573_CH571/CH573EVT/EVT/EXAM/SRC/StdPeriphDriver/CH57x_gpio.c:43
            R32_PA_DIR &= ~pin;
            break;

        case GPIO_ModeIN_PD:
            R32_PA_PD_DRV |= pin;
            R32_PA_PU &= ~pin;
     a0e:	8f69                	and	a4,a4,a0
     a10:	0ae7a823          	sw	a4,176(a5)
D:/DATA/Electronic/MCU&MPU&DSP/32bit/«ﬂ∫„WCH/CH573_CH571/CH573EVT/EVT/EXAM/SRC/StdPeriphDriver/CH57x_gpio.c:44
            R32_PA_DIR &= ~pin;
     a14:	0a07a703          	lw	a4,160(a5)
     a18:	8d79                	and	a0,a0,a4
D:/DATA/Electronic/MCU&MPU&DSP/32bit/«ﬂ∫„WCH/CH573_CH571/CH573EVT/EVT/EXAM/SRC/StdPeriphDriver/CH57x_gpio.c:54
            R32_PA_DIR |= pin;
            break;

        case GPIO_ModeOut_PP_20mA:
            R32_PA_PD_DRV |= pin;
            R32_PA_DIR |= pin;
     a1a:	0aa7a023          	sw	a0,160(a5)
D:/DATA/Electronic/MCU&MPU&DSP/32bit/«ﬂ∫„WCH/CH573_CH571/CH573EVT/EVT/EXAM/SRC/StdPeriphDriver/CH57x_gpio.c:60
            break;

        default:
            break;
    }
}
     a1e:	8082                	ret
D:/DATA/Electronic/MCU&MPU&DSP/32bit/«ﬂ∫„WCH/CH573_CH571/CH573EVT/EVT/EXAM/SRC/StdPeriphDriver/CH57x_gpio.c:36
            R32_PA_PD_DRV &= ~pin;
     a20:	400017b7          	lui	a5,0x40001
     a24:	0b47a683          	lw	a3,180(a5) # 400010b4 <_eusrstack+0x1fff90b4>
     a28:	fff54713          	not	a4,a0
     a2c:	8ef9                	and	a3,a3,a4
     a2e:	0ad7aa23          	sw	a3,180(a5)
D:/DATA/Electronic/MCU&MPU&DSP/32bit/«ﬂ∫„WCH/CH573_CH571/CH573EVT/EVT/EXAM/SRC/StdPeriphDriver/CH57x_gpio.c:37
            R32_PA_PU |= pin;
     a32:	0b07a683          	lw	a3,176(a5)
     a36:	8d55                	or	a0,a0,a3
     a38:	0aa7a823          	sw	a0,176(a5)
D:/DATA/Electronic/MCU&MPU&DSP/32bit/«ﬂ∫„WCH/CH573_CH571/CH573EVT/EVT/EXAM/SRC/StdPeriphDriver/CH57x_gpio.c:38
            R32_PA_DIR &= ~pin;
     a3c:	0a07a683          	lw	a3,160(a5)
     a40:	8f75                	and	a4,a4,a3
     a42:	0ae7a023          	sw	a4,160(a5)
D:/DATA/Electronic/MCU&MPU&DSP/32bit/«ﬂ∫„WCH/CH573_CH571/CH573EVT/EVT/EXAM/SRC/StdPeriphDriver/CH57x_gpio.c:39
            break;
     a46:	8082                	ret
D:/DATA/Electronic/MCU&MPU&DSP/32bit/«ﬂ∫„WCH/CH573_CH571/CH573EVT/EVT/EXAM/SRC/StdPeriphDriver/CH57x_gpio.c:42
            R32_PA_PD_DRV |= pin;
     a48:	400017b7          	lui	a5,0x40001
     a4c:	0b47a703          	lw	a4,180(a5) # 400010b4 <_eusrstack+0x1fff90b4>
     a50:	8f49                	or	a4,a4,a0
     a52:	0ae7aa23          	sw	a4,180(a5)
D:/DATA/Electronic/MCU&MPU&DSP/32bit/«ﬂ∫„WCH/CH573_CH571/CH573EVT/EVT/EXAM/SRC/StdPeriphDriver/CH57x_gpio.c:43
            R32_PA_PU &= ~pin;
     a56:	0b07a703          	lw	a4,176(a5)
     a5a:	fff54513          	not	a0,a0
     a5e:	bf45                	j	a0e <GPIOA_ModeCfg+0x2e>
D:/DATA/Electronic/MCU&MPU&DSP/32bit/«ﬂ∫„WCH/CH573_CH571/CH573EVT/EVT/EXAM/SRC/StdPeriphDriver/CH57x_gpio.c:48
            R32_PA_PD_DRV &= ~pin;
     a60:	400017b7          	lui	a5,0x40001
     a64:	0b47a683          	lw	a3,180(a5) # 400010b4 <_eusrstack+0x1fff90b4>
     a68:	fff54713          	not	a4,a0
     a6c:	8f75                	and	a4,a4,a3
D:/DATA/Electronic/MCU&MPU&DSP/32bit/«ﬂ∫„WCH/CH573_CH571/CH573EVT/EVT/EXAM/SRC/StdPeriphDriver/CH57x_gpio.c:53
            R32_PA_PD_DRV |= pin;
     a6e:	0ae7aa23          	sw	a4,180(a5)
D:/DATA/Electronic/MCU&MPU&DSP/32bit/«ﬂ∫„WCH/CH573_CH571/CH573EVT/EVT/EXAM/SRC/StdPeriphDriver/CH57x_gpio.c:54
            R32_PA_DIR |= pin;
     a72:	0a07a703          	lw	a4,160(a5)
     a76:	8d59                	or	a0,a0,a4
     a78:	b74d                	j	a1a <GPIOA_ModeCfg+0x3a>
D:/DATA/Electronic/MCU&MPU&DSP/32bit/«ﬂ∫„WCH/CH573_CH571/CH573EVT/EVT/EXAM/SRC/StdPeriphDriver/CH57x_gpio.c:53
            R32_PA_PD_DRV |= pin;
     a7a:	400017b7          	lui	a5,0x40001
     a7e:	0b47a703          	lw	a4,180(a5) # 400010b4 <_eusrstack+0x1fff90b4>
     a82:	8f49                	or	a4,a4,a0
     a84:	b7ed                	j	a6e <GPIOA_ModeCfg+0x8e>

00000a86 <GPIOB_ModeCfg>:
GPIOB_ModeCfg():
D:/DATA/Electronic/MCU&MPU&DSP/32bit/«ﬂ∫„WCH/CH573_CH571/CH573EVT/EVT/EXAM/SRC/StdPeriphDriver/CH57x_gpio.c:74
 *
 * @return  none
 */
void GPIOB_ModeCfg(uint32_t pin, GPIOModeTypeDef mode)
{
    switch(mode)
     a86:	4791                	li	a5,4
     a88:	02b7ee63          	bltu	a5,a1,ac4 <GPIOB_ModeCfg+0x3e>
     a8c:	00001717          	auipc	a4,0x1
     a90:	5b070713          	addi	a4,a4,1456 # 203c <_sbrk+0x60>
     a94:	058a                	slli	a1,a1,0x2
     a96:	95ba                	add	a1,a1,a4
     a98:	419c                	lw	a5,0(a1)
     a9a:	97ba                	add	a5,a5,a4
     a9c:	8782                	jr	a5
D:/DATA/Electronic/MCU&MPU&DSP/32bit/«ﬂ∫„WCH/CH573_CH571/CH573EVT/EVT/EXAM/SRC/StdPeriphDriver/CH57x_gpio.c:77
    {
        case GPIO_ModeIN_Floating:
            R32_PB_PD_DRV &= ~pin;
     a9e:	400017b7          	lui	a5,0x40001
     aa2:	0d47a703          	lw	a4,212(a5) # 400010d4 <_eusrstack+0x1fff90d4>
     aa6:	fff54513          	not	a0,a0
     aaa:	8f69                	and	a4,a4,a0
     aac:	0ce7aa23          	sw	a4,212(a5)
D:/DATA/Electronic/MCU&MPU&DSP/32bit/«ﬂ∫„WCH/CH573_CH571/CH573EVT/EVT/EXAM/SRC/StdPeriphDriver/CH57x_gpio.c:78
            R32_PB_PU &= ~pin;
     ab0:	0d07a703          	lw	a4,208(a5)
D:/DATA/Electronic/MCU&MPU&DSP/32bit/«ﬂ∫„WCH/CH573_CH571/CH573EVT/EVT/EXAM/SRC/StdPeriphDriver/CH57x_gpio.c:90
            R32_PB_DIR &= ~pin;
            break;

        case GPIO_ModeIN_PD:
            R32_PB_PD_DRV |= pin;
            R32_PB_PU &= ~pin;
     ab4:	8f69                	and	a4,a4,a0
     ab6:	0ce7a823          	sw	a4,208(a5)
D:/DATA/Electronic/MCU&MPU&DSP/32bit/«ﬂ∫„WCH/CH573_CH571/CH573EVT/EVT/EXAM/SRC/StdPeriphDriver/CH57x_gpio.c:91
            R32_PB_DIR &= ~pin;
     aba:	0c07a703          	lw	a4,192(a5)
     abe:	8d79                	and	a0,a0,a4
D:/DATA/Electronic/MCU&MPU&DSP/32bit/«ﬂ∫„WCH/CH573_CH571/CH573EVT/EVT/EXAM/SRC/StdPeriphDriver/CH57x_gpio.c:101
            R32_PB_DIR |= pin;
            break;

        case GPIO_ModeOut_PP_20mA:
            R32_PB_PD_DRV |= pin;
            R32_PB_DIR |= pin;
     ac0:	0ca7a023          	sw	a0,192(a5)
D:/DATA/Electronic/MCU&MPU&DSP/32bit/«ﬂ∫„WCH/CH573_CH571/CH573EVT/EVT/EXAM/SRC/StdPeriphDriver/CH57x_gpio.c:107
            break;

        default:
            break;
    }
}
     ac4:	8082                	ret
D:/DATA/Electronic/MCU&MPU&DSP/32bit/«ﬂ∫„WCH/CH573_CH571/CH573EVT/EVT/EXAM/SRC/StdPeriphDriver/CH57x_gpio.c:83
            R32_PB_PD_DRV &= ~pin;
     ac6:	400017b7          	lui	a5,0x40001
     aca:	0d47a683          	lw	a3,212(a5) # 400010d4 <_eusrstack+0x1fff90d4>
     ace:	fff54713          	not	a4,a0
     ad2:	8ef9                	and	a3,a3,a4
     ad4:	0cd7aa23          	sw	a3,212(a5)
D:/DATA/Electronic/MCU&MPU&DSP/32bit/«ﬂ∫„WCH/CH573_CH571/CH573EVT/EVT/EXAM/SRC/StdPeriphDriver/CH57x_gpio.c:84
            R32_PB_PU |= pin;
     ad8:	0d07a683          	lw	a3,208(a5)
     adc:	8d55                	or	a0,a0,a3
     ade:	0ca7a823          	sw	a0,208(a5)
D:/DATA/Electronic/MCU&MPU&DSP/32bit/«ﬂ∫„WCH/CH573_CH571/CH573EVT/EVT/EXAM/SRC/StdPeriphDriver/CH57x_gpio.c:85
            R32_PB_DIR &= ~pin;
     ae2:	0c07a683          	lw	a3,192(a5)
     ae6:	8f75                	and	a4,a4,a3
     ae8:	0ce7a023          	sw	a4,192(a5)
D:/DATA/Electronic/MCU&MPU&DSP/32bit/«ﬂ∫„WCH/CH573_CH571/CH573EVT/EVT/EXAM/SRC/StdPeriphDriver/CH57x_gpio.c:86
            break;
     aec:	8082                	ret
D:/DATA/Electronic/MCU&MPU&DSP/32bit/«ﬂ∫„WCH/CH573_CH571/CH573EVT/EVT/EXAM/SRC/StdPeriphDriver/CH57x_gpio.c:89
            R32_PB_PD_DRV |= pin;
     aee:	400017b7          	lui	a5,0x40001
     af2:	0d47a703          	lw	a4,212(a5) # 400010d4 <_eusrstack+0x1fff90d4>
     af6:	8f49                	or	a4,a4,a0
     af8:	0ce7aa23          	sw	a4,212(a5)
D:/DATA/Electronic/MCU&MPU&DSP/32bit/«ﬂ∫„WCH/CH573_CH571/CH573EVT/EVT/EXAM/SRC/StdPeriphDriver/CH57x_gpio.c:90
            R32_PB_PU &= ~pin;
     afc:	0d07a703          	lw	a4,208(a5)
     b00:	fff54513          	not	a0,a0
     b04:	bf45                	j	ab4 <GPIOB_ModeCfg+0x2e>
D:/DATA/Electronic/MCU&MPU&DSP/32bit/«ﬂ∫„WCH/CH573_CH571/CH573EVT/EVT/EXAM/SRC/StdPeriphDriver/CH57x_gpio.c:95
            R32_PB_PD_DRV &= ~pin;
     b06:	400017b7          	lui	a5,0x40001
     b0a:	0d47a683          	lw	a3,212(a5) # 400010d4 <_eusrstack+0x1fff90d4>
     b0e:	fff54713          	not	a4,a0
     b12:	8f75                	and	a4,a4,a3
D:/DATA/Electronic/MCU&MPU&DSP/32bit/«ﬂ∫„WCH/CH573_CH571/CH573EVT/EVT/EXAM/SRC/StdPeriphDriver/CH57x_gpio.c:100
            R32_PB_PD_DRV |= pin;
     b14:	0ce7aa23          	sw	a4,212(a5)
D:/DATA/Electronic/MCU&MPU&DSP/32bit/«ﬂ∫„WCH/CH573_CH571/CH573EVT/EVT/EXAM/SRC/StdPeriphDriver/CH57x_gpio.c:101
            R32_PB_DIR |= pin;
     b18:	0c07a703          	lw	a4,192(a5)
     b1c:	8d59                	or	a0,a0,a4
     b1e:	b74d                	j	ac0 <GPIOB_ModeCfg+0x3a>
D:/DATA/Electronic/MCU&MPU&DSP/32bit/«ﬂ∫„WCH/CH573_CH571/CH573EVT/EVT/EXAM/SRC/StdPeriphDriver/CH57x_gpio.c:100
            R32_PB_PD_DRV |= pin;
     b20:	400017b7          	lui	a5,0x40001
     b24:	0d47a703          	lw	a4,212(a5) # 400010d4 <_eusrstack+0x1fff90d4>
     b28:	8f49                	or	a4,a4,a0
     b2a:	b7ed                	j	b14 <GPIOB_ModeCfg+0x8e>

00000b2c <GPIOPinRemap>:
GPIOPinRemap():
D:/DATA/Electronic/MCU&MPU&DSP/32bit/«ﬂ∫„WCH/CH573_CH571/CH573EVT/EVT/EXAM/SRC/StdPeriphDriver/CH57x_gpio.c:211
 */
void GPIOPinRemap(FunctionalState s, uint16_t perph)
{
    if(s)
    {
        R16_PIN_ALTERNATE |= perph;
     b2c:	400017b7          	lui	a5,0x40001
     b30:	0187d703          	lhu	a4,24(a5) # 40001018 <_eusrstack+0x1fff9018>
D:/DATA/Electronic/MCU&MPU&DSP/32bit/«ﬂ∫„WCH/CH573_CH571/CH573EVT/EVT/EXAM/SRC/StdPeriphDriver/CH57x_gpio.c:209
    if(s)
     b34:	c509                	beqz	a0,b3e <GPIOPinRemap+0x12>
D:/DATA/Electronic/MCU&MPU&DSP/32bit/«ﬂ∫„WCH/CH573_CH571/CH573EVT/EVT/EXAM/SRC/StdPeriphDriver/CH57x_gpio.c:211
        R16_PIN_ALTERNATE |= perph;
     b36:	8dd9                	or	a1,a1,a4
D:/DATA/Electronic/MCU&MPU&DSP/32bit/«ﬂ∫„WCH/CH573_CH571/CH573EVT/EVT/EXAM/SRC/StdPeriphDriver/CH57x_gpio.c:215
    }
    else
    {
        R16_PIN_ALTERNATE &= ~perph;
     b38:	00b79c23          	sh	a1,24(a5)
D:/DATA/Electronic/MCU&MPU&DSP/32bit/«ﬂ∫„WCH/CH573_CH571/CH573EVT/EVT/EXAM/SRC/StdPeriphDriver/CH57x_gpio.c:217
    }
}
     b3c:	8082                	ret
D:/DATA/Electronic/MCU&MPU&DSP/32bit/«ﬂ∫„WCH/CH573_CH571/CH573EVT/EVT/EXAM/SRC/StdPeriphDriver/CH57x_gpio.c:215
        R16_PIN_ALTERNATE &= ~perph;
     b3e:	fff5c593          	not	a1,a1
     b42:	8df9                	and	a1,a1,a4
     b44:	bfd5                	j	b38 <GPIOPinRemap+0xc>

00000b46 <PWR_UnitModCfg>:
PWR_UnitModCfg():
D:/DATA/Electronic/MCU&MPU&DSP/32bit/«ﬂ∫„WCH/CH573_CH571/CH573EVT/EVT/EXAM/SRC/StdPeriphDriver/CH57x_pwr.c:58
 *
 * @return  none
 */
void PWR_UnitModCfg(FunctionalState s, uint8_t unit)
{
    uint8_t pwr_ctrl = R8_HFCK_PWR_CTRL;
     b46:	40001737          	lui	a4,0x40001
     b4a:	00a74783          	lbu	a5,10(a4) # 4000100a <_eusrstack+0x1fff900a>
D:/DATA/Electronic/MCU&MPU&DSP/32bit/«ﬂ∫„WCH/CH573_CH571/CH573EVT/EVT/EXAM/SRC/StdPeriphDriver/CH57x_pwr.c:59
    uint8_t ck32k_cfg = R8_CK32K_CONFIG;
     b4e:	02f74703          	lbu	a4,47(a4)
D:/DATA/Electronic/MCU&MPU&DSP/32bit/«ﬂ∫„WCH/CH573_CH571/CH573EVT/EVT/EXAM/SRC/StdPeriphDriver/CH57x_pwr.c:58
    uint8_t pwr_ctrl = R8_HFCK_PWR_CTRL;
     b52:	0ff7f793          	andi	a5,a5,255
D:/DATA/Electronic/MCU&MPU&DSP/32bit/«ﬂ∫„WCH/CH573_CH571/CH573EVT/EVT/EXAM/SRC/StdPeriphDriver/CH57x_pwr.c:59
    uint8_t ck32k_cfg = R8_CK32K_CONFIG;
     b56:	0ff77713          	andi	a4,a4,255
D:/DATA/Electronic/MCU&MPU&DSP/32bit/«ﬂ∫„WCH/CH573_CH571/CH573EVT/EVT/EXAM/SRC/StdPeriphDriver/CH57x_pwr.c:61

    if(s == DISABLE) //πÿ±’
     b5a:	ed05                	bnez	a0,b92 <PWR_UnitModCfg+0x4c>
D:/DATA/Electronic/MCU&MPU&DSP/32bit/«ﬂ∫„WCH/CH573_CH571/CH573EVT/EVT/EXAM/SRC/StdPeriphDriver/CH57x_pwr.c:63
    {
        pwr_ctrl &= ~(unit & 0x1c);
     b5c:	01c5f693          	andi	a3,a1,28
     b60:	fff6c693          	not	a3,a3
D:/DATA/Electronic/MCU&MPU&DSP/32bit/«ﬂ∫„WCH/CH573_CH571/CH573EVT/EVT/EXAM/SRC/StdPeriphDriver/CH57x_pwr.c:64
        ck32k_cfg &= ~(unit & 0x03);
     b64:	898d                	andi	a1,a1,3
D:/DATA/Electronic/MCU&MPU&DSP/32bit/«ﬂ∫„WCH/CH573_CH571/CH573EVT/EVT/EXAM/SRC/StdPeriphDriver/CH57x_pwr.c:63
        pwr_ctrl &= ~(unit & 0x1c);
     b66:	8efd                	and	a3,a3,a5
D:/DATA/Electronic/MCU&MPU&DSP/32bit/«ﬂ∫„WCH/CH573_CH571/CH573EVT/EVT/EXAM/SRC/StdPeriphDriver/CH57x_pwr.c:64
        ck32k_cfg &= ~(unit & 0x03);
     b68:	fff5c793          	not	a5,a1
     b6c:	00e7f5b3          	and	a1,a5,a4
sys_safe_access_enable():
D:\DATA\Electronic\MCU&MPU&DSP\32bit\«ﬂ∫„WCH\CH573_CH571\CH573EVT\EVT\EXAM\SRC\StdPeriphDriver\inc/CH57x_sys.h:178
    R8_SAFE_ACCESS_SIG = SAFE_ACCESS_SIG1;
     b70:	400017b7          	lui	a5,0x40001
     b74:	05700713          	li	a4,87
     b78:	04e78023          	sb	a4,64(a5) # 40001040 <_eusrstack+0x1fff9040>
D:\DATA\Electronic\MCU&MPU&DSP\32bit\«ﬂ∫„WCH\CH573_CH571\CH573EVT\EVT\EXAM\SRC\StdPeriphDriver\inc/CH57x_sys.h:179
    R8_SAFE_ACCESS_SIG = SAFE_ACCESS_SIG2;
     b7c:	fa800713          	li	a4,-88
     b80:	04e78023          	sb	a4,64(a5)
PWR_UnitModCfg():
D:/DATA/Electronic/MCU&MPU&DSP/32bit/«ﬂ∫„WCH/CH573_CH571/CH573EVT/EVT/EXAM/SRC/StdPeriphDriver/CH57x_pwr.c:73
        pwr_ctrl |= (unit & 0x1c);
        ck32k_cfg |= (unit & 0x03);
    }

    sys_safe_access_enable();
    R8_HFCK_PWR_CTRL = pwr_ctrl;
     b84:	00d78523          	sb	a3,10(a5)
D:/DATA/Electronic/MCU&MPU&DSP/32bit/«ﬂ∫„WCH/CH573_CH571/CH573EVT/EVT/EXAM/SRC/StdPeriphDriver/CH57x_pwr.c:74
    R8_CK32K_CONFIG = ck32k_cfg;
     b88:	02b787a3          	sb	a1,47(a5)
sys_safe_access_disable():
D:\DATA\Electronic\MCU&MPU&DSP\32bit\«ﬂ∫„WCH\CH573_CH571\CH573EVT\EVT\EXAM\SRC\StdPeriphDriver\inc/CH57x_sys.h:184
    R8_SAFE_ACCESS_SIG = 0;
     b8c:	04078023          	sb	zero,64(a5)
PWR_UnitModCfg():
D:/DATA/Electronic/MCU&MPU&DSP/32bit/«ﬂ∫„WCH/CH573_CH571/CH573EVT/EVT/EXAM/SRC/StdPeriphDriver/CH57x_pwr.c:76
    sys_safe_access_disable();
}
     b90:	8082                	ret
D:/DATA/Electronic/MCU&MPU&DSP/32bit/«ﬂ∫„WCH/CH573_CH571/CH573EVT/EVT/EXAM/SRC/StdPeriphDriver/CH57x_pwr.c:68
        pwr_ctrl |= (unit & 0x1c);
     b92:	05e2                	slli	a1,a1,0x18
     b94:	85e1                	srai	a1,a1,0x18
     b96:	01c5f693          	andi	a3,a1,28
D:/DATA/Electronic/MCU&MPU&DSP/32bit/«ﬂ∫„WCH/CH573_CH571/CH573EVT/EVT/EXAM/SRC/StdPeriphDriver/CH57x_pwr.c:69
        ck32k_cfg |= (unit & 0x03);
     b9a:	898d                	andi	a1,a1,3
D:/DATA/Electronic/MCU&MPU&DSP/32bit/«ﬂ∫„WCH/CH573_CH571/CH573EVT/EVT/EXAM/SRC/StdPeriphDriver/CH57x_pwr.c:68
        pwr_ctrl |= (unit & 0x1c);
     b9c:	8edd                	or	a3,a3,a5
D:/DATA/Electronic/MCU&MPU&DSP/32bit/«ﬂ∫„WCH/CH573_CH571/CH573EVT/EVT/EXAM/SRC/StdPeriphDriver/CH57x_pwr.c:69
        ck32k_cfg |= (unit & 0x03);
     b9e:	8dd9                	or	a1,a1,a4
     ba0:	bfc1                	j	b70 <PWR_UnitModCfg+0x2a>

00000ba2 <GetSysClock>:
GetSysClock():
D:/DATA/Electronic/MCU&MPU&DSP/32bit/«ﬂ∫„WCH/CH573_CH571/CH573EVT/EVT/EXAM/SRC/StdPeriphDriver/CH57x_sys.c:94
    rev = R16_CLK_SYS_CFG & 0xff;
     ba2:	400017b7          	lui	a5,0x40001
     ba6:	0087d503          	lhu	a0,8(a5) # 40001008 <_eusrstack+0x1fff9008>
     baa:	0542                	slli	a0,a0,0x10
     bac:	8141                	srli	a0,a0,0x10
D:/DATA/Electronic/MCU&MPU&DSP/32bit/«ﬂ∫„WCH/CH573_CH571/CH573EVT/EVT/EXAM/SRC/StdPeriphDriver/CH57x_sys.c:95
    if((rev & 0x40) == (0 << 6))
     bae:	04057793          	andi	a5,a0,64
     bb2:	eb91                	bnez	a5,bc6 <GetSysClock+0x24>
D:/DATA/Electronic/MCU&MPU&DSP/32bit/«ﬂ∫„WCH/CH573_CH571/CH573EVT/EVT/EXAM/SRC/StdPeriphDriver/CH57x_sys.c:97
        return (32000000 / (rev & 0x1f));
     bb4:	01f57793          	andi	a5,a0,31
     bb8:	01e85537          	lui	a0,0x1e85
D:/DATA/Electronic/MCU&MPU&DSP/32bit/«ﬂ∫„WCH/CH573_CH571/CH573EVT/EVT/EXAM/SRC/StdPeriphDriver/CH57x_sys.c:101
        return (480000000 / (rev & 0x1f));
     bbc:	80050513          	addi	a0,a0,-2048 # 1e84800 <_data_lma+0x1e82710>
     bc0:	02f54533          	div	a0,a0,a5
     bc4:	8082                	ret
D:/DATA/Electronic/MCU&MPU&DSP/32bit/«ﬂ∫„WCH/CH573_CH571/CH573EVT/EVT/EXAM/SRC/StdPeriphDriver/CH57x_sys.c:99
    else if((rev & RB_CLK_SYS_MOD) == (1 << 6))
     bc6:	0c057793          	andi	a5,a0,192
     bca:	04000713          	li	a4,64
     bce:	00e79763          	bne	a5,a4,bdc <GetSysClock+0x3a>
D:/DATA/Electronic/MCU&MPU&DSP/32bit/«ﬂ∫„WCH/CH573_CH571/CH573EVT/EVT/EXAM/SRC/StdPeriphDriver/CH57x_sys.c:101
        return (480000000 / (rev & 0x1f));
     bd2:	01f57793          	andi	a5,a0,31
     bd6:	1c9c4537          	lui	a0,0x1c9c4
     bda:	b7cd                	j	bbc <GetSysClock+0x1a>
D:/DATA/Electronic/MCU&MPU&DSP/32bit/«ﬂ∫„WCH/CH573_CH571/CH573EVT/EVT/EXAM/SRC/StdPeriphDriver/CH57x_sys.c:105
        return (32000);
     bdc:	6521                	lui	a0,0x8
     bde:	d0050513          	addi	a0,a0,-768 # 7d00 <_data_lma+0x5c10>
D:/DATA/Electronic/MCU&MPU&DSP/32bit/«ﬂ∫„WCH/CH573_CH571/CH573EVT/EVT/EXAM/SRC/StdPeriphDriver/CH57x_sys.c:107
}
     be2:	8082                	ret

00000be4 <_write>:
_write():
D:/DATA/Electronic/MCU&MPU&DSP/32bit/«ﬂ∫„WCH/CH573_CH571/CH573EVT/EVT/EXAM/SRC/StdPeriphDriver/CH57x_sys.c:353

#ifdef DEBUG
int _write(int fd, char *buf, int size)
{
    int i;
    for(i = 0; i < size; i++)
     be4:	4781                	li	a5,0
D:/DATA/Electronic/MCU&MPU&DSP/32bit/«ﬂ∫„WCH/CH573_CH571/CH573EVT/EVT/EXAM/SRC/StdPeriphDriver/CH57x_sys.c:359
    {
#if DEBUG == Debug_UART0
        while(R8_UART0_TFC == UART_FIFO_SIZE);                  /* µ»¥˝ ˝æ›∑¢ÀÕ */
        R8_UART0_THR = *buf++; /* ∑¢ÀÕ ˝æ› */
#elif DEBUG == Debug_UART1
        while(R8_UART1_TFC == UART_FIFO_SIZE);                  /* µ»¥˝ ˝æ›∑¢ÀÕ */
     be6:	40003737          	lui	a4,0x40003
     bea:	46a1                	li	a3,8
D:/DATA/Electronic/MCU&MPU&DSP/32bit/«ﬂ∫„WCH/CH573_CH571/CH573EVT/EVT/EXAM/SRC/StdPeriphDriver/CH57x_sys.c:353 (discriminator 1)
    for(i = 0; i < size; i++)
     bec:	00c7c463          	blt	a5,a2,bf4 <_write+0x10>
D:/DATA/Electronic/MCU&MPU&DSP/32bit/«ﬂ∫„WCH/CH573_CH571/CH573EVT/EVT/EXAM/SRC/StdPeriphDriver/CH57x_sys.c:370
        while(R8_UART3_TFC == UART_FIFO_SIZE);                  /* µ»¥˝ ˝æ›∑¢ÀÕ */
        R8_UART3_THR = *buf++; /* ∑¢ÀÕ ˝æ› */
#endif
    }
    return size;
}
     bf0:	8532                	mv	a0,a2
     bf2:	8082                	ret
D:/DATA/Electronic/MCU&MPU&DSP/32bit/«ﬂ∫„WCH/CH573_CH571/CH573EVT/EVT/EXAM/SRC/StdPeriphDriver/CH57x_sys.c:359 (discriminator 1)
        while(R8_UART1_TFC == UART_FIFO_SIZE);                  /* µ»¥˝ ˝æ›∑¢ÀÕ */
     bf4:	40b74503          	lbu	a0,1035(a4) # 4000340b <_eusrstack+0x1fffb40b>
     bf8:	fea68ee3          	beq	a3,a0,bf4 <_write+0x10>
D:/DATA/Electronic/MCU&MPU&DSP/32bit/«ﬂ∫„WCH/CH573_CH571/CH573EVT/EVT/EXAM/SRC/StdPeriphDriver/CH57x_sys.c:360 (discriminator 2)
        R8_UART1_THR = *buf++; /* ∑¢ÀÕ ˝æ› */
     bfc:	00f58533          	add	a0,a1,a5
     c00:	00054503          	lbu	a0,0(a0)
D:/DATA/Electronic/MCU&MPU&DSP/32bit/«ﬂ∫„WCH/CH573_CH571/CH573EVT/EVT/EXAM/SRC/StdPeriphDriver/CH57x_sys.c:353 (discriminator 2)
    for(i = 0; i < size; i++)
     c04:	0785                	addi	a5,a5,1
D:/DATA/Electronic/MCU&MPU&DSP/32bit/«ﬂ∫„WCH/CH573_CH571/CH573EVT/EVT/EXAM/SRC/StdPeriphDriver/CH57x_sys.c:360 (discriminator 2)
        R8_UART1_THR = *buf++; /* ∑¢ÀÕ ˝æ› */
     c06:	40a70423          	sb	a0,1032(a4)
     c0a:	b7cd                	j	bec <_write+0x8>

00000c0c <TMR0_TimerInit>:
TMR0_TimerInit():
D:/DATA/Electronic/MCU&MPU&DSP/32bit/«ﬂ∫„WCH/CH573_CH571/CH573EVT/EVT/EXAM/SRC/StdPeriphDriver/CH57x_timer0.c:26
 *
 * @return  none
 */
void TMR0_TimerInit(uint32_t t)
{
    R32_TMR0_CNT_END = t;
     c0c:	400027b7          	lui	a5,0x40002
     c10:	c7c8                	sw	a0,12(a5)
D:/DATA/Electronic/MCU&MPU&DSP/32bit/«ﬂ∫„WCH/CH573_CH571/CH573EVT/EVT/EXAM/SRC/StdPeriphDriver/CH57x_timer0.c:27
    R8_TMR0_CTRL_MOD = RB_TMR_ALL_CLEAR;
     c12:	4709                	li	a4,2
     c14:	00e78023          	sb	a4,0(a5) # 40002000 <_eusrstack+0x1fffa000>
D:/DATA/Electronic/MCU&MPU&DSP/32bit/«ﬂ∫„WCH/CH573_CH571/CH573EVT/EVT/EXAM/SRC/StdPeriphDriver/CH57x_timer0.c:28
    R8_TMR0_CTRL_MOD = RB_TMR_COUNT_EN;
     c18:	4711                	li	a4,4
     c1a:	00e78023          	sb	a4,0(a5)
D:/DATA/Electronic/MCU&MPU&DSP/32bit/«ﬂ∫„WCH/CH573_CH571/CH573EVT/EVT/EXAM/SRC/StdPeriphDriver/CH57x_timer0.c:29
}
     c1e:	8082                	ret

00000c20 <TMR1_CapInit>:
TMR1_CapInit():
D:/DATA/Electronic/MCU&MPU&DSP/32bit/«ﬂ∫„WCH/CH573_CH571/CH573EVT/EVT/EXAM/SRC/StdPeriphDriver/CH57x_timer1.c:74
 * @return  none
 */
void TMR1_CapInit(CapModeTypeDef cap)
{
    R8_TMR1_CTRL_MOD = RB_TMR_ALL_CLEAR;
    R8_TMR1_CTRL_MOD = RB_TMR_COUNT_EN | RB_TMR_MODE_IN | (cap << 6);
     c20:	051a                	slli	a0,a0,0x6
D:/DATA/Electronic/MCU&MPU&DSP/32bit/«ﬂ∫„WCH/CH573_CH571/CH573EVT/EVT/EXAM/SRC/StdPeriphDriver/CH57x_timer1.c:73
    R8_TMR1_CTRL_MOD = RB_TMR_ALL_CLEAR;
     c22:	400027b7          	lui	a5,0x40002
     c26:	4709                	li	a4,2
D:/DATA/Electronic/MCU&MPU&DSP/32bit/«ﬂ∫„WCH/CH573_CH571/CH573EVT/EVT/EXAM/SRC/StdPeriphDriver/CH57x_timer1.c:74
    R8_TMR1_CTRL_MOD = RB_TMR_COUNT_EN | RB_TMR_MODE_IN | (cap << 6);
     c28:	00556513          	ori	a0,a0,5
D:/DATA/Electronic/MCU&MPU&DSP/32bit/«ﬂ∫„WCH/CH573_CH571/CH573EVT/EVT/EXAM/SRC/StdPeriphDriver/CH57x_timer1.c:73
    R8_TMR1_CTRL_MOD = RB_TMR_ALL_CLEAR;
     c2c:	40e78023          	sb	a4,1024(a5) # 40002400 <_eusrstack+0x1fffa400>
D:/DATA/Electronic/MCU&MPU&DSP/32bit/«ﬂ∫„WCH/CH573_CH571/CH573EVT/EVT/EXAM/SRC/StdPeriphDriver/CH57x_timer1.c:74
    R8_TMR1_CTRL_MOD = RB_TMR_COUNT_EN | RB_TMR_MODE_IN | (cap << 6);
     c30:	0ff57513          	andi	a0,a0,255
     c34:	40a78023          	sb	a0,1024(a5)
D:/DATA/Electronic/MCU&MPU&DSP/32bit/«ﬂ∫„WCH/CH573_CH571/CH573EVT/EVT/EXAM/SRC/StdPeriphDriver/CH57x_timer1.c:75
}
     c38:	8082                	ret

00000c3a <TMR1_DMACfg>:
TMR1_DMACfg():
D:/DATA/Electronic/MCU&MPU&DSP/32bit/«ﬂ∫„WCH/CH573_CH571/CH573EVT/EVT/EXAM/SRC/StdPeriphDriver/CH57x_timer1.c:93
 */
void TMR1_DMACfg(uint8_t s, uint16_t startAddr, uint16_t endAddr, DMAModeTypeDef m)
{
    if(s == DISABLE)
    {
        R8_TMR1_CTRL_DMA = 0;
     c3a:	400027b7          	lui	a5,0x40002
D:/DATA/Electronic/MCU&MPU&DSP/32bit/«ﬂ∫„WCH/CH573_CH571/CH573EVT/EVT/EXAM/SRC/StdPeriphDriver/CH57x_timer1.c:91
    if(s == DISABLE)
     c3e:	e501                	bnez	a0,c46 <TMR1_DMACfg+0xc>
D:/DATA/Electronic/MCU&MPU&DSP/32bit/«ﬂ∫„WCH/CH573_CH571/CH573EVT/EVT/EXAM/SRC/StdPeriphDriver/CH57x_timer1.c:93
        R8_TMR1_CTRL_DMA = 0;
     c40:	400780a3          	sb	zero,1025(a5) # 40002401 <_eusrstack+0x1fffa401>
     c44:	8082                	ret
D:/DATA/Electronic/MCU&MPU&DSP/32bit/«ﬂ∫„WCH/CH573_CH571/CH573EVT/EVT/EXAM/SRC/StdPeriphDriver/CH57x_timer1.c:97
    }
    else
    {
        R16_TMR1_DMA_BEG = startAddr;
     c46:	40b79c23          	sh	a1,1048(a5)
D:/DATA/Electronic/MCU&MPU&DSP/32bit/«ﬂ∫„WCH/CH573_CH571/CH573EVT/EVT/EXAM/SRC/StdPeriphDriver/CH57x_timer1.c:98
        R16_TMR1_DMA_END = endAddr;
     c4a:	40c79e23          	sh	a2,1052(a5)
D:/DATA/Electronic/MCU&MPU&DSP/32bit/«ﬂ∫„WCH/CH573_CH571/CH573EVT/EVT/EXAM/SRC/StdPeriphDriver/CH57x_timer1.c:101
        if(m)
        {
            R8_TMR1_CTRL_DMA = RB_TMR_DMA_LOOP | RB_TMR_DMA_ENABLE;
     c4e:	4715                	li	a4,5
D:/DATA/Electronic/MCU&MPU&DSP/32bit/«ﬂ∫„WCH/CH573_CH571/CH573EVT/EVT/EXAM/SRC/StdPeriphDriver/CH57x_timer1.c:99
        if(m)
     c50:	e291                	bnez	a3,c54 <TMR1_DMACfg+0x1a>
D:/DATA/Electronic/MCU&MPU&DSP/32bit/«ﬂ∫„WCH/CH573_CH571/CH573EVT/EVT/EXAM/SRC/StdPeriphDriver/CH57x_timer1.c:105
        }
        else
        {
            R8_TMR1_CTRL_DMA = RB_TMR_DMA_ENABLE;
     c52:	4705                	li	a4,1
     c54:	40e780a3          	sb	a4,1025(a5)
D:/DATA/Electronic/MCU&MPU&DSP/32bit/«ﬂ∫„WCH/CH573_CH571/CH573EVT/EVT/EXAM/SRC/StdPeriphDriver/CH57x_timer1.c:108
        }
    }
}
     c58:	8082                	ret

00000c5a <TMR2_EXTSingleCounterInit>:
TMR2_EXTSingleCounterInit():
D:/DATA/Electronic/MCU&MPU&DSP/32bit/«ﬂ∫„WCH/CH573_CH571/CH573EVT/EVT/EXAM/SRC/StdPeriphDriver/CH57x_timer2.c:43
 * @return  none
 */
void TMR2_EXTSingleCounterInit(CapModeTypeDef cap)
{
    R8_TMR2_CTRL_MOD = RB_TMR_ALL_CLEAR;
    R8_TMR2_CTRL_MOD = RB_TMR_COUNT_EN | RB_TMR_CAP_COUNT | RB_TMR_MODE_IN | (cap << 6);
     c5a:	051a                	slli	a0,a0,0x6
D:/DATA/Electronic/MCU&MPU&DSP/32bit/«ﬂ∫„WCH/CH573_CH571/CH573EVT/EVT/EXAM/SRC/StdPeriphDriver/CH57x_timer2.c:42
    R8_TMR2_CTRL_MOD = RB_TMR_ALL_CLEAR;
     c5c:	400037b7          	lui	a5,0x40003
     c60:	4709                	li	a4,2
D:/DATA/Electronic/MCU&MPU&DSP/32bit/«ﬂ∫„WCH/CH573_CH571/CH573EVT/EVT/EXAM/SRC/StdPeriphDriver/CH57x_timer2.c:43
    R8_TMR2_CTRL_MOD = RB_TMR_COUNT_EN | RB_TMR_CAP_COUNT | RB_TMR_MODE_IN | (cap << 6);
     c62:	01556513          	ori	a0,a0,21
D:/DATA/Electronic/MCU&MPU&DSP/32bit/«ﬂ∫„WCH/CH573_CH571/CH573EVT/EVT/EXAM/SRC/StdPeriphDriver/CH57x_timer2.c:42
    R8_TMR2_CTRL_MOD = RB_TMR_ALL_CLEAR;
     c66:	80e78023          	sb	a4,-2048(a5) # 40002800 <_eusrstack+0x1fffa800>
D:/DATA/Electronic/MCU&MPU&DSP/32bit/«ﬂ∫„WCH/CH573_CH571/CH573EVT/EVT/EXAM/SRC/StdPeriphDriver/CH57x_timer2.c:43
    R8_TMR2_CTRL_MOD = RB_TMR_COUNT_EN | RB_TMR_CAP_COUNT | RB_TMR_MODE_IN | (cap << 6);
     c6a:	0ff57513          	andi	a0,a0,255
     c6e:	80a78023          	sb	a0,-2048(a5)
D:/DATA/Electronic/MCU&MPU&DSP/32bit/«ﬂ∫„WCH/CH573_CH571/CH573EVT/EVT/EXAM/SRC/StdPeriphDriver/CH57x_timer2.c:44
}
     c72:	8082                	ret

00000c74 <TMR3_PWMInit>:
TMR3_PWMInit():
D:/DATA/Electronic/MCU&MPU&DSP/32bit/«ﬂ∫„WCH/CH573_CH571/CH573EVT/EVT/EXAM/SRC/StdPeriphDriver/CH57x_timer3.c:59
 * @return  none
 */
void TMR3_PWMInit(PWMX_PolarTypeDef pr, PWM_RepeatTsTypeDef ts)
{
    //    R8_TMR3_CTRL_MOD = RB_TMR_ALL_CLEAR;
    R8_TMR3_CTRL_MOD = RB_TMR_COUNT_EN | RB_TMR_OUT_EN | (pr << 4) | (ts << 6);
     c74:	0512                	slli	a0,a0,0x4
     c76:	059a                	slli	a1,a1,0x6
     c78:	8d4d                	or	a0,a0,a1
     c7a:	00c56513          	ori	a0,a0,12
     c7e:	0ff57513          	andi	a0,a0,255
     c82:	400037b7          	lui	a5,0x40003
     c86:	c0a78023          	sb	a0,-1024(a5) # 40002c00 <_eusrstack+0x1fffac00>
D:/DATA/Electronic/MCU&MPU&DSP/32bit/«ﬂ∫„WCH/CH573_CH571/CH573EVT/EVT/EXAM/SRC/StdPeriphDriver/CH57x_timer3.c:60
}
     c8a:	8082                	ret

00000c8c <UART1_BaudRateCfg>:
UART1_BaudRateCfg():
D:/DATA/Electronic/MCU&MPU&DSP/32bit/«ﬂ∫„WCH/CH573_CH571/CH573EVT/EVT/EXAM/SRC/StdPeriphDriver/CH57x_uart1.c:43
 * @param   baudrate    - ≤®Ãÿ¬ 
 *
 * @return  none
 */
void UART1_BaudRateCfg(uint32_t baudrate)
{
     c8c:	1141                	addi	sp,sp,-16
     c8e:	c422                	sw	s0,8(sp)
     c90:	c606                	sw	ra,12(sp)
     c92:	842a                	mv	s0,a0
D:/DATA/Electronic/MCU&MPU&DSP/32bit/«ﬂ∫„WCH/CH573_CH571/CH573EVT/EVT/EXAM/SRC/StdPeriphDriver/CH57x_uart1.c:46
    uint32_t x;

    x = 10 * GetSysClock() / 8 / baudrate;
     c94:	3739                	jal	ba2 <GetSysClock>
     c96:	4729                	li	a4,10
     c98:	02e507b3          	mul	a5,a0,a4
D:/DATA/Electronic/MCU&MPU&DSP/32bit/«ﬂ∫„WCH/CH573_CH571/CH573EVT/EVT/EXAM/SRC/StdPeriphDriver/CH57x_uart1.c:49
    x = (x + 5) / 10;
    R16_UART1_DL = (uint16_t)x;
}
     c9c:	40b2                	lw	ra,12(sp)
D:/DATA/Electronic/MCU&MPU&DSP/32bit/«ﬂ∫„WCH/CH573_CH571/CH573EVT/EVT/EXAM/SRC/StdPeriphDriver/CH57x_uart1.c:46
    x = 10 * GetSysClock() / 8 / baudrate;
     c9e:	838d                	srli	a5,a5,0x3
     ca0:	0287d7b3          	divu	a5,a5,s0
D:/DATA/Electronic/MCU&MPU&DSP/32bit/«ﬂ∫„WCH/CH573_CH571/CH573EVT/EVT/EXAM/SRC/StdPeriphDriver/CH57x_uart1.c:49
}
     ca4:	4422                	lw	s0,8(sp)
D:/DATA/Electronic/MCU&MPU&DSP/32bit/«ﬂ∫„WCH/CH573_CH571/CH573EVT/EVT/EXAM/SRC/StdPeriphDriver/CH57x_uart1.c:47
    x = (x + 5) / 10;
     ca6:	0795                	addi	a5,a5,5
     ca8:	02e7d7b3          	divu	a5,a5,a4
D:/DATA/Electronic/MCU&MPU&DSP/32bit/«ﬂ∫„WCH/CH573_CH571/CH573EVT/EVT/EXAM/SRC/StdPeriphDriver/CH57x_uart1.c:48
    R16_UART1_DL = (uint16_t)x;
     cac:	40003737          	lui	a4,0x40003
     cb0:	07c2                	slli	a5,a5,0x10
     cb2:	83c1                	srli	a5,a5,0x10
     cb4:	40f71623          	sh	a5,1036(a4) # 4000340c <_eusrstack+0x1fffb40c>
D:/DATA/Electronic/MCU&MPU&DSP/32bit/«ﬂ∫„WCH/CH573_CH571/CH573EVT/EVT/EXAM/SRC/StdPeriphDriver/CH57x_uart1.c:49
}
     cb8:	0141                	addi	sp,sp,16
     cba:	8082                	ret

00000cbc <UART1_DefInit>:
UART1_DefInit():
D:/DATA/Electronic/MCU&MPU&DSP/32bit/«ﬂ∫„WCH/CH573_CH571/CH573EVT/EVT/EXAM/SRC/StdPeriphDriver/CH57x_uart1.c:26
    UART1_BaudRateCfg(115200);
     cbc:	6571                	lui	a0,0x1c
D:/DATA/Electronic/MCU&MPU&DSP/32bit/«ﬂ∫„WCH/CH573_CH571/CH573EVT/EVT/EXAM/SRC/StdPeriphDriver/CH57x_uart1.c:25
{
     cbe:	1141                	addi	sp,sp,-16
D:/DATA/Electronic/MCU&MPU&DSP/32bit/«ﬂ∫„WCH/CH573_CH571/CH573EVT/EVT/EXAM/SRC/StdPeriphDriver/CH57x_uart1.c:26
    UART1_BaudRateCfg(115200);
     cc0:	20050513          	addi	a0,a0,512 # 1c200 <_data_lma+0x1a110>
D:/DATA/Electronic/MCU&MPU&DSP/32bit/«ﬂ∫„WCH/CH573_CH571/CH573EVT/EVT/EXAM/SRC/StdPeriphDriver/CH57x_uart1.c:25
{
     cc4:	c606                	sw	ra,12(sp)
D:/DATA/Electronic/MCU&MPU&DSP/32bit/«ﬂ∫„WCH/CH573_CH571/CH573EVT/EVT/EXAM/SRC/StdPeriphDriver/CH57x_uart1.c:26
    UART1_BaudRateCfg(115200);
     cc6:	37d9                	jal	c8c <UART1_BaudRateCfg>
D:/DATA/Electronic/MCU&MPU&DSP/32bit/«ﬂ∫„WCH/CH573_CH571/CH573EVT/EVT/EXAM/SRC/StdPeriphDriver/CH57x_uart1.c:27
    R8_UART1_FCR = (2 << 6) | RB_FCR_TX_FIFO_CLR | RB_FCR_RX_FIFO_CLR | RB_FCR_FIFO_EN; // FIFO¥Úø™£¨¥•∑¢µ„4◊÷Ω⁄
     cc8:	400037b7          	lui	a5,0x40003
     ccc:	f8700713          	li	a4,-121
     cd0:	40e78123          	sb	a4,1026(a5) # 40003402 <_eusrstack+0x1fffb402>
D:/DATA/Electronic/MCU&MPU&DSP/32bit/«ﬂ∫„WCH/CH573_CH571/CH573EVT/EVT/EXAM/SRC/StdPeriphDriver/CH57x_uart1.c:28
    R8_UART1_LCR = RB_LCR_WORD_SZ;
     cd4:	470d                	li	a4,3
     cd6:	40e781a3          	sb	a4,1027(a5)
D:/DATA/Electronic/MCU&MPU&DSP/32bit/«ﬂ∫„WCH/CH573_CH571/CH573EVT/EVT/EXAM/SRC/StdPeriphDriver/CH57x_uart1.c:29
    R8_UART1_IER = RB_IER_TXD_EN;
     cda:	04000713          	li	a4,64
     cde:	40e780a3          	sb	a4,1025(a5)
D:/DATA/Electronic/MCU&MPU&DSP/32bit/«ﬂ∫„WCH/CH573_CH571/CH573EVT/EVT/EXAM/SRC/StdPeriphDriver/CH57x_uart1.c:30
    R8_UART1_DIV = 1;
     ce2:	4705                	li	a4,1
     ce4:	40e78723          	sb	a4,1038(a5)
D:/DATA/Electronic/MCU&MPU&DSP/32bit/«ﬂ∫„WCH/CH573_CH571/CH573EVT/EVT/EXAM/SRC/StdPeriphDriver/CH57x_uart1.c:31
}
     ce8:	40b2                	lw	ra,12(sp)
     cea:	0141                	addi	sp,sp,16
     cec:	8082                	ret

00000cee <iprintf>:
printf():
     cee:	7139                	addi	sp,sp,-64
     cf0:	da3e                	sw	a5,52(sp)
     cf2:	d22e                	sw	a1,36(sp)
     cf4:	d432                	sw	a2,40(sp)
     cf6:	d636                	sw	a3,44(sp)
     cf8:	d83a                	sw	a4,48(sp)
     cfa:	dc42                	sw	a6,56(sp)
     cfc:	de46                	sw	a7,60(sp)
     cfe:	20003797          	auipc	a5,0x20003
     d02:	36278793          	addi	a5,a5,866 # 20004060 <_impure_ptr>
     d06:	cc22                	sw	s0,24(sp)
     d08:	4380                	lw	s0,0(a5)
     d0a:	ca26                	sw	s1,20(sp)
     d0c:	ce06                	sw	ra,28(sp)
     d0e:	84aa                	mv	s1,a0
     d10:	c409                	beqz	s0,d1a <iprintf+0x2c>
     d12:	4c1c                	lw	a5,24(s0)
     d14:	e399                	bnez	a5,d1a <iprintf+0x2c>
     d16:	8522                	mv	a0,s0
     d18:	2ba9                	jal	1272 <__sinit>
     d1a:	440c                	lw	a1,8(s0)
     d1c:	1054                	addi	a3,sp,36
     d1e:	8626                	mv	a2,s1
     d20:	8522                	mv	a0,s0
     d22:	c636                	sw	a3,12(sp)
     d24:	1a9000ef          	jal	ra,16cc <_vfiprintf_r>
     d28:	40f2                	lw	ra,28(sp)
     d2a:	4462                	lw	s0,24(sp)
     d2c:	44d2                	lw	s1,20(sp)
     d2e:	6121                	addi	sp,sp,64
     d30:	8082                	ret

00000d32 <putchar>:
putchar():
     d32:	1101                	addi	sp,sp,-32
     d34:	20003797          	auipc	a5,0x20003
     d38:	32c78793          	addi	a5,a5,812 # 20004060 <_impure_ptr>
     d3c:	cc22                	sw	s0,24(sp)
     d3e:	4380                	lw	s0,0(a5)
     d40:	ce06                	sw	ra,28(sp)
     d42:	85aa                	mv	a1,a0
     d44:	c419                	beqz	s0,d52 <putchar+0x20>
     d46:	4c1c                	lw	a5,24(s0)
     d48:	e789                	bnez	a5,d52 <putchar+0x20>
     d4a:	c62a                	sw	a0,12(sp)
     d4c:	8522                	mv	a0,s0
     d4e:	2315                	jal	1272 <__sinit>
     d50:	45b2                	lw	a1,12(sp)
     d52:	4410                	lw	a2,8(s0)
     d54:	8522                	mv	a0,s0
     d56:	4462                	lw	s0,24(sp)
     d58:	40f2                	lw	ra,28(sp)
     d5a:	6105                	addi	sp,sp,32
     d5c:	7bf0006f          	j	1d1a <_putc_r>

00000d60 <_puts_r>:
_puts_r():
     d60:	1101                	addi	sp,sp,-32
     d62:	ca26                	sw	s1,20(sp)
     d64:	c84a                	sw	s2,16(sp)
     d66:	ce06                	sw	ra,28(sp)
     d68:	cc22                	sw	s0,24(sp)
     d6a:	c64e                	sw	s3,12(sp)
     d6c:	c452                	sw	s4,8(sp)
     d6e:	84aa                	mv	s1,a0
     d70:	892e                	mv	s2,a1
     d72:	c501                	beqz	a0,d7a <_puts_r+0x1a>
     d74:	4d1c                	lw	a5,24(a0)
     d76:	e391                	bnez	a5,d7a <_puts_r+0x1a>
     d78:	29ed                	jal	1272 <__sinit>
     d7a:	4c9c                	lw	a5,24(s1)
     d7c:	4480                	lw	s0,8(s1)
     d7e:	e399                	bnez	a5,d84 <_puts_r+0x24>
     d80:	8526                	mv	a0,s1
     d82:	29c5                	jal	1272 <__sinit>
     d84:	00001797          	auipc	a5,0x1
     d88:	2ec78793          	addi	a5,a5,748 # 2070 <__sf_fake_stdin>
     d8c:	02f41c63          	bne	s0,a5,dc4 <_puts_r+0x64>
     d90:	40c0                	lw	s0,4(s1)
     d92:	00c45783          	lhu	a5,12(s0)
     d96:	8ba1                	andi	a5,a5,8
     d98:	c7b1                	beqz	a5,de4 <_puts_r+0x84>
     d9a:	481c                	lw	a5,16(s0)
     d9c:	c7a1                	beqz	a5,de4 <_puts_r+0x84>
     d9e:	59fd                	li	s3,-1
     da0:	4a29                	li	s4,10
     da2:	441c                	lw	a5,8(s0)
     da4:	00094583          	lbu	a1,0(s2)
     da8:	17fd                	addi	a5,a5,-1
     daa:	e9b1                	bnez	a1,dfe <_puts_r+0x9e>
     dac:	c41c                	sw	a5,8(s0)
     dae:	0607de63          	bgez	a5,e2a <_puts_r+0xca>
     db2:	8622                	mv	a2,s0
     db4:	45a9                	li	a1,10
     db6:	8526                	mv	a0,s1
     db8:	2841                	jal	e48 <__swbuf_r>
     dba:	57fd                	li	a5,-1
     dbc:	02f50863          	beq	a0,a5,dec <_puts_r+0x8c>
     dc0:	4529                	li	a0,10
     dc2:	a035                	j	dee <_puts_r+0x8e>
     dc4:	00001797          	auipc	a5,0x1
     dc8:	2cc78793          	addi	a5,a5,716 # 2090 <__sf_fake_stdout>
     dcc:	00f41463          	bne	s0,a5,dd4 <_puts_r+0x74>
     dd0:	4480                	lw	s0,8(s1)
     dd2:	b7c1                	j	d92 <_puts_r+0x32>
     dd4:	00001797          	auipc	a5,0x1
     dd8:	27c78793          	addi	a5,a5,636 # 2050 <__sf_fake_stderr>
     ddc:	faf41be3          	bne	s0,a5,d92 <_puts_r+0x32>
     de0:	44c0                	lw	s0,12(s1)
     de2:	bf45                	j	d92 <_puts_r+0x32>
     de4:	85a2                	mv	a1,s0
     de6:	8526                	mv	a0,s1
     de8:	2205                	jal	f08 <__swsetup_r>
     dea:	d955                	beqz	a0,d9e <_puts_r+0x3e>
     dec:	557d                	li	a0,-1
     dee:	40f2                	lw	ra,28(sp)
     df0:	4462                	lw	s0,24(sp)
     df2:	44d2                	lw	s1,20(sp)
     df4:	4942                	lw	s2,16(sp)
     df6:	49b2                	lw	s3,12(sp)
     df8:	4a22                	lw	s4,8(sp)
     dfa:	6105                	addi	sp,sp,32
     dfc:	8082                	ret
     dfe:	c41c                	sw	a5,8(s0)
     e00:	0905                	addi	s2,s2,1
     e02:	0007d763          	bgez	a5,e10 <_puts_r+0xb0>
     e06:	4c18                	lw	a4,24(s0)
     e08:	00e7cb63          	blt	a5,a4,e1e <_puts_r+0xbe>
     e0c:	01458963          	beq	a1,s4,e1e <_puts_r+0xbe>
     e10:	401c                	lw	a5,0(s0)
     e12:	00178713          	addi	a4,a5,1
     e16:	c018                	sw	a4,0(s0)
     e18:	00b78023          	sb	a1,0(a5)
     e1c:	b759                	j	da2 <_puts_r+0x42>
     e1e:	8622                	mv	a2,s0
     e20:	8526                	mv	a0,s1
     e22:	201d                	jal	e48 <__swbuf_r>
     e24:	f7351fe3          	bne	a0,s3,da2 <_puts_r+0x42>
     e28:	b7d1                	j	dec <_puts_r+0x8c>
     e2a:	401c                	lw	a5,0(s0)
     e2c:	00178713          	addi	a4,a5,1
     e30:	c018                	sw	a4,0(s0)
     e32:	4729                	li	a4,10
     e34:	00e78023          	sb	a4,0(a5)
     e38:	b761                	j	dc0 <_puts_r+0x60>

00000e3a <puts>:
puts():
     e3a:	20003797          	auipc	a5,0x20003
     e3e:	22678793          	addi	a5,a5,550 # 20004060 <_impure_ptr>
     e42:	85aa                	mv	a1,a0
     e44:	4388                	lw	a0,0(a5)
     e46:	bf29                	j	d60 <_puts_r>

00000e48 <__swbuf_r>:
__swbuf_r():
     e48:	1101                	addi	sp,sp,-32
     e4a:	cc22                	sw	s0,24(sp)
     e4c:	ca26                	sw	s1,20(sp)
     e4e:	c84a                	sw	s2,16(sp)
     e50:	ce06                	sw	ra,28(sp)
     e52:	c64e                	sw	s3,12(sp)
     e54:	84aa                	mv	s1,a0
     e56:	892e                	mv	s2,a1
     e58:	8432                	mv	s0,a2
     e5a:	c501                	beqz	a0,e62 <__swbuf_r+0x1a>
     e5c:	4d1c                	lw	a5,24(a0)
     e5e:	e391                	bnez	a5,e62 <__swbuf_r+0x1a>
     e60:	2909                	jal	1272 <__sinit>
     e62:	00001797          	auipc	a5,0x1
     e66:	20e78793          	addi	a5,a5,526 # 2070 <__sf_fake_stdin>
     e6a:	06f41963          	bne	s0,a5,edc <__swbuf_r+0x94>
     e6e:	40c0                	lw	s0,4(s1)
     e70:	4c1c                	lw	a5,24(s0)
     e72:	c41c                	sw	a5,8(s0)
     e74:	00c45783          	lhu	a5,12(s0)
     e78:	8ba1                	andi	a5,a5,8
     e7a:	c3c9                	beqz	a5,efc <__swbuf_r+0xb4>
     e7c:	481c                	lw	a5,16(s0)
     e7e:	cfbd                	beqz	a5,efc <__swbuf_r+0xb4>
     e80:	481c                	lw	a5,16(s0)
     e82:	4008                	lw	a0,0(s0)
     e84:	0ff97993          	andi	s3,s2,255
     e88:	0ff97913          	andi	s2,s2,255
     e8c:	8d1d                	sub	a0,a0,a5
     e8e:	485c                	lw	a5,20(s0)
     e90:	00f54663          	blt	a0,a5,e9c <__swbuf_r+0x54>
     e94:	85a2                	mv	a1,s0
     e96:	8526                	mv	a0,s1
     e98:	2c75                	jal	1154 <_fflush_r>
     e9a:	e52d                	bnez	a0,f04 <__swbuf_r+0xbc>
     e9c:	441c                	lw	a5,8(s0)
     e9e:	0505                	addi	a0,a0,1
     ea0:	17fd                	addi	a5,a5,-1
     ea2:	c41c                	sw	a5,8(s0)
     ea4:	401c                	lw	a5,0(s0)
     ea6:	00178713          	addi	a4,a5,1
     eaa:	c018                	sw	a4,0(s0)
     eac:	01378023          	sb	s3,0(a5)
     eb0:	485c                	lw	a5,20(s0)
     eb2:	00a78963          	beq	a5,a0,ec4 <__swbuf_r+0x7c>
     eb6:	00c45783          	lhu	a5,12(s0)
     eba:	8b85                	andi	a5,a5,1
     ebc:	cb81                	beqz	a5,ecc <__swbuf_r+0x84>
     ebe:	47a9                	li	a5,10
     ec0:	00f91663          	bne	s2,a5,ecc <__swbuf_r+0x84>
     ec4:	85a2                	mv	a1,s0
     ec6:	8526                	mv	a0,s1
     ec8:	2471                	jal	1154 <_fflush_r>
     eca:	ed0d                	bnez	a0,f04 <__swbuf_r+0xbc>
     ecc:	40f2                	lw	ra,28(sp)
     ece:	4462                	lw	s0,24(sp)
     ed0:	854a                	mv	a0,s2
     ed2:	44d2                	lw	s1,20(sp)
     ed4:	4942                	lw	s2,16(sp)
     ed6:	49b2                	lw	s3,12(sp)
     ed8:	6105                	addi	sp,sp,32
     eda:	8082                	ret
     edc:	00001797          	auipc	a5,0x1
     ee0:	1b478793          	addi	a5,a5,436 # 2090 <__sf_fake_stdout>
     ee4:	00f41463          	bne	s0,a5,eec <__swbuf_r+0xa4>
     ee8:	4480                	lw	s0,8(s1)
     eea:	b759                	j	e70 <__swbuf_r+0x28>
     eec:	00001797          	auipc	a5,0x1
     ef0:	16478793          	addi	a5,a5,356 # 2050 <__sf_fake_stderr>
     ef4:	f6f41ee3          	bne	s0,a5,e70 <__swbuf_r+0x28>
     ef8:	44c0                	lw	s0,12(s1)
     efa:	bf9d                	j	e70 <__swbuf_r+0x28>
     efc:	85a2                	mv	a1,s0
     efe:	8526                	mv	a0,s1
     f00:	2021                	jal	f08 <__swsetup_r>
     f02:	dd3d                	beqz	a0,e80 <__swbuf_r+0x38>
     f04:	597d                	li	s2,-1
     f06:	b7d9                	j	ecc <__swbuf_r+0x84>

00000f08 <__swsetup_r>:
__swsetup_r():
     f08:	1141                	addi	sp,sp,-16
     f0a:	20003797          	auipc	a5,0x20003
     f0e:	15678793          	addi	a5,a5,342 # 20004060 <_impure_ptr>
     f12:	c226                	sw	s1,4(sp)
     f14:	4384                	lw	s1,0(a5)
     f16:	c422                	sw	s0,8(sp)
     f18:	c04a                	sw	s2,0(sp)
     f1a:	c606                	sw	ra,12(sp)
     f1c:	892a                	mv	s2,a0
     f1e:	842e                	mv	s0,a1
     f20:	c489                	beqz	s1,f2a <__swsetup_r+0x22>
     f22:	4c9c                	lw	a5,24(s1)
     f24:	e399                	bnez	a5,f2a <__swsetup_r+0x22>
     f26:	8526                	mv	a0,s1
     f28:	26a9                	jal	1272 <__sinit>
     f2a:	00001797          	auipc	a5,0x1
     f2e:	14678793          	addi	a5,a5,326 # 2070 <__sf_fake_stdin>
     f32:	02f41c63          	bne	s0,a5,f6a <__swsetup_r+0x62>
     f36:	40c0                	lw	s0,4(s1)
     f38:	00c41703          	lh	a4,12(s0)
     f3c:	01071793          	slli	a5,a4,0x10
     f40:	83c1                	srli	a5,a5,0x10
     f42:	0087f693          	andi	a3,a5,8
     f46:	eeb5                	bnez	a3,fc2 <__swsetup_r+0xba>
     f48:	0107f693          	andi	a3,a5,16
     f4c:	ee9d                	bnez	a3,f8a <__swsetup_r+0x82>
     f4e:	47a5                	li	a5,9
     f50:	00f92023          	sw	a5,0(s2)
     f54:	04076713          	ori	a4,a4,64
     f58:	00e41623          	sh	a4,12(s0)
     f5c:	557d                	li	a0,-1
     f5e:	40b2                	lw	ra,12(sp)
     f60:	4422                	lw	s0,8(sp)
     f62:	4492                	lw	s1,4(sp)
     f64:	4902                	lw	s2,0(sp)
     f66:	0141                	addi	sp,sp,16
     f68:	8082                	ret
     f6a:	00001797          	auipc	a5,0x1
     f6e:	12678793          	addi	a5,a5,294 # 2090 <__sf_fake_stdout>
     f72:	00f41463          	bne	s0,a5,f7a <__swsetup_r+0x72>
     f76:	4480                	lw	s0,8(s1)
     f78:	b7c1                	j	f38 <__swsetup_r+0x30>
     f7a:	00001797          	auipc	a5,0x1
     f7e:	0d678793          	addi	a5,a5,214 # 2050 <__sf_fake_stderr>
     f82:	faf41be3          	bne	s0,a5,f38 <__swsetup_r+0x30>
     f86:	44c0                	lw	s0,12(s1)
     f88:	bf45                	j	f38 <__swsetup_r+0x30>
     f8a:	8b91                	andi	a5,a5,4
     f8c:	c78d                	beqz	a5,fb6 <__swsetup_r+0xae>
     f8e:	584c                	lw	a1,52(s0)
     f90:	c989                	beqz	a1,fa2 <__swsetup_r+0x9a>
     f92:	04440793          	addi	a5,s0,68
     f96:	00f58463          	beq	a1,a5,f9e <__swsetup_r+0x96>
     f9a:	854a                	mv	a0,s2
     f9c:	2391                	jal	14e0 <_free_r>
     f9e:	02042a23          	sw	zero,52(s0)
     fa2:	00c45783          	lhu	a5,12(s0)
     fa6:	00042223          	sw	zero,4(s0)
     faa:	fdb7f793          	andi	a5,a5,-37
     fae:	00f41623          	sh	a5,12(s0)
     fb2:	481c                	lw	a5,16(s0)
     fb4:	c01c                	sw	a5,0(s0)
     fb6:	00c45783          	lhu	a5,12(s0)
     fba:	0087e793          	ori	a5,a5,8
     fbe:	00f41623          	sh	a5,12(s0)
     fc2:	481c                	lw	a5,16(s0)
     fc4:	ef81                	bnez	a5,fdc <__swsetup_r+0xd4>
     fc6:	00c45783          	lhu	a5,12(s0)
     fca:	20000713          	li	a4,512
     fce:	2807f793          	andi	a5,a5,640
     fd2:	00e78563          	beq	a5,a4,fdc <__swsetup_r+0xd4>
     fd6:	85a2                	mv	a1,s0
     fd8:	854a                	mv	a0,s2
     fda:	21a5                	jal	1442 <__smakebuf_r>
     fdc:	00c45783          	lhu	a5,12(s0)
     fe0:	0017f713          	andi	a4,a5,1
     fe4:	c705                	beqz	a4,100c <__swsetup_r+0x104>
     fe6:	485c                	lw	a5,20(s0)
     fe8:	00042423          	sw	zero,8(s0)
     fec:	40f007b3          	neg	a5,a5
     ff0:	cc1c                	sw	a5,24(s0)
     ff2:	481c                	lw	a5,16(s0)
     ff4:	4501                	li	a0,0
     ff6:	f7a5                	bnez	a5,f5e <__swsetup_r+0x56>
     ff8:	00c41783          	lh	a5,12(s0)
     ffc:	0807f713          	andi	a4,a5,128
    1000:	df39                	beqz	a4,f5e <__swsetup_r+0x56>
    1002:	0407e793          	ori	a5,a5,64
    1006:	00f41623          	sh	a5,12(s0)
    100a:	bf89                	j	f5c <__swsetup_r+0x54>
    100c:	8b89                	andi	a5,a5,2
    100e:	4701                	li	a4,0
    1010:	e391                	bnez	a5,1014 <__swsetup_r+0x10c>
    1012:	4858                	lw	a4,20(s0)
    1014:	c418                	sw	a4,8(s0)
    1016:	bff1                	j	ff2 <__swsetup_r+0xea>

00001018 <__sflush_r>:
__sflush_r():
    1018:	00c5d783          	lhu	a5,12(a1)
    101c:	1101                	addi	sp,sp,-32
    101e:	cc22                	sw	s0,24(sp)
    1020:	ca26                	sw	s1,20(sp)
    1022:	ce06                	sw	ra,28(sp)
    1024:	c84a                	sw	s2,16(sp)
    1026:	c64e                	sw	s3,12(sp)
    1028:	0087f713          	andi	a4,a5,8
    102c:	84aa                	mv	s1,a0
    102e:	842e                	mv	s0,a1
    1030:	ef71                	bnez	a4,110c <__sflush_r+0xf4>
    1032:	41d8                	lw	a4,4(a1)
    1034:	00e04d63          	bgtz	a4,104e <__sflush_r+0x36>
    1038:	41b8                	lw	a4,64(a1)
    103a:	00e04a63          	bgtz	a4,104e <__sflush_r+0x36>
    103e:	4501                	li	a0,0
    1040:	40f2                	lw	ra,28(sp)
    1042:	4462                	lw	s0,24(sp)
    1044:	44d2                	lw	s1,20(sp)
    1046:	4942                	lw	s2,16(sp)
    1048:	49b2                	lw	s3,12(sp)
    104a:	6105                	addi	sp,sp,32
    104c:	8082                	ret
    104e:	5458                	lw	a4,44(s0)
    1050:	d77d                	beqz	a4,103e <__sflush_r+0x26>
    1052:	0004a903          	lw	s2,0(s1)
    1056:	01379693          	slli	a3,a5,0x13
    105a:	0004a023          	sw	zero,0(s1)
    105e:	0606dd63          	bgez	a3,10d8 <__sflush_r+0xc0>
    1062:	4870                	lw	a2,84(s0)
    1064:	00c45783          	lhu	a5,12(s0)
    1068:	8b91                	andi	a5,a5,4
    106a:	c799                	beqz	a5,1078 <__sflush_r+0x60>
    106c:	405c                	lw	a5,4(s0)
    106e:	8e1d                	sub	a2,a2,a5
    1070:	585c                	lw	a5,52(s0)
    1072:	c399                	beqz	a5,1078 <__sflush_r+0x60>
    1074:	403c                	lw	a5,64(s0)
    1076:	8e1d                	sub	a2,a2,a5
    1078:	545c                	lw	a5,44(s0)
    107a:	500c                	lw	a1,32(s0)
    107c:	4681                	li	a3,0
    107e:	8526                	mv	a0,s1
    1080:	9782                	jalr	a5
    1082:	57fd                	li	a5,-1
    1084:	00c45703          	lhu	a4,12(s0)
    1088:	00f51d63          	bne	a0,a5,10a2 <__sflush_r+0x8a>
    108c:	4094                	lw	a3,0(s1)
    108e:	47f5                	li	a5,29
    1090:	06d7e863          	bltu	a5,a3,1100 <__sflush_r+0xe8>
    1094:	204007b7          	lui	a5,0x20400
    1098:	0785                	addi	a5,a5,1
    109a:	00d7d7b3          	srl	a5,a5,a3
    109e:	8b85                	andi	a5,a5,1
    10a0:	c3a5                	beqz	a5,1100 <__sflush_r+0xe8>
    10a2:	481c                	lw	a5,16(s0)
    10a4:	00042223          	sw	zero,4(s0)
    10a8:	c01c                	sw	a5,0(s0)
    10aa:	01371793          	slli	a5,a4,0x13
    10ae:	0007d863          	bgez	a5,10be <__sflush_r+0xa6>
    10b2:	57fd                	li	a5,-1
    10b4:	00f51463          	bne	a0,a5,10bc <__sflush_r+0xa4>
    10b8:	409c                	lw	a5,0(s1)
    10ba:	e391                	bnez	a5,10be <__sflush_r+0xa6>
    10bc:	c868                	sw	a0,84(s0)
    10be:	584c                	lw	a1,52(s0)
    10c0:	0124a023          	sw	s2,0(s1)
    10c4:	ddad                	beqz	a1,103e <__sflush_r+0x26>
    10c6:	04440793          	addi	a5,s0,68
    10ca:	00f58463          	beq	a1,a5,10d2 <__sflush_r+0xba>
    10ce:	8526                	mv	a0,s1
    10d0:	2901                	jal	14e0 <_free_r>
    10d2:	02042a23          	sw	zero,52(s0)
    10d6:	b7a5                	j	103e <__sflush_r+0x26>
    10d8:	500c                	lw	a1,32(s0)
    10da:	4601                	li	a2,0
    10dc:	4685                	li	a3,1
    10de:	8526                	mv	a0,s1
    10e0:	9702                	jalr	a4
    10e2:	57fd                	li	a5,-1
    10e4:	862a                	mv	a2,a0
    10e6:	f6f51fe3          	bne	a0,a5,1064 <__sflush_r+0x4c>
    10ea:	409c                	lw	a5,0(s1)
    10ec:	dfa5                	beqz	a5,1064 <__sflush_r+0x4c>
    10ee:	4775                	li	a4,29
    10f0:	00e78563          	beq	a5,a4,10fa <__sflush_r+0xe2>
    10f4:	4759                	li	a4,22
    10f6:	04e79463          	bne	a5,a4,113e <__sflush_r+0x126>
    10fa:	0124a023          	sw	s2,0(s1)
    10fe:	b781                	j	103e <__sflush_r+0x26>
    1100:	04076713          	ori	a4,a4,64
    1104:	00e41623          	sh	a4,12(s0)
    1108:	557d                	li	a0,-1
    110a:	bf1d                	j	1040 <__sflush_r+0x28>
    110c:	0105a983          	lw	s3,16(a1)
    1110:	f20987e3          	beqz	s3,103e <__sflush_r+0x26>
    1114:	0005a903          	lw	s2,0(a1)
    1118:	8b8d                	andi	a5,a5,3
    111a:	0135a023          	sw	s3,0(a1)
    111e:	41390933          	sub	s2,s2,s3
    1122:	4701                	li	a4,0
    1124:	e391                	bnez	a5,1128 <__sflush_r+0x110>
    1126:	49d8                	lw	a4,20(a1)
    1128:	c418                	sw	a4,8(s0)
    112a:	f1205ae3          	blez	s2,103e <__sflush_r+0x26>
    112e:	541c                	lw	a5,40(s0)
    1130:	500c                	lw	a1,32(s0)
    1132:	86ca                	mv	a3,s2
    1134:	864e                	mv	a2,s3
    1136:	8526                	mv	a0,s1
    1138:	9782                	jalr	a5
    113a:	00a04963          	bgtz	a0,114c <__sflush_r+0x134>
    113e:	00c45783          	lhu	a5,12(s0)
    1142:	0407e793          	ori	a5,a5,64
    1146:	00f41623          	sh	a5,12(s0)
    114a:	bf7d                	j	1108 <__sflush_r+0xf0>
    114c:	99aa                	add	s3,s3,a0
    114e:	40a90933          	sub	s2,s2,a0
    1152:	bfe1                	j	112a <__sflush_r+0x112>

00001154 <_fflush_r>:
_fflush_r():
    1154:	499c                	lw	a5,16(a1)
    1156:	cfb9                	beqz	a5,11b4 <_fflush_r+0x60>
    1158:	1101                	addi	sp,sp,-32
    115a:	cc22                	sw	s0,24(sp)
    115c:	ce06                	sw	ra,28(sp)
    115e:	842a                	mv	s0,a0
    1160:	c511                	beqz	a0,116c <_fflush_r+0x18>
    1162:	4d1c                	lw	a5,24(a0)
    1164:	e781                	bnez	a5,116c <_fflush_r+0x18>
    1166:	c62e                	sw	a1,12(sp)
    1168:	2229                	jal	1272 <__sinit>
    116a:	45b2                	lw	a1,12(sp)
    116c:	00001797          	auipc	a5,0x1
    1170:	f0478793          	addi	a5,a5,-252 # 2070 <__sf_fake_stdin>
    1174:	00f59b63          	bne	a1,a5,118a <_fflush_r+0x36>
    1178:	404c                	lw	a1,4(s0)
    117a:	00c59783          	lh	a5,12(a1)
    117e:	c795                	beqz	a5,11aa <_fflush_r+0x56>
    1180:	8522                	mv	a0,s0
    1182:	4462                	lw	s0,24(sp)
    1184:	40f2                	lw	ra,28(sp)
    1186:	6105                	addi	sp,sp,32
    1188:	bd41                	j	1018 <__sflush_r>
    118a:	00001797          	auipc	a5,0x1
    118e:	f0678793          	addi	a5,a5,-250 # 2090 <__sf_fake_stdout>
    1192:	00f59463          	bne	a1,a5,119a <_fflush_r+0x46>
    1196:	440c                	lw	a1,8(s0)
    1198:	b7cd                	j	117a <_fflush_r+0x26>
    119a:	00001797          	auipc	a5,0x1
    119e:	eb678793          	addi	a5,a5,-330 # 2050 <__sf_fake_stderr>
    11a2:	fcf59ce3          	bne	a1,a5,117a <_fflush_r+0x26>
    11a6:	444c                	lw	a1,12(s0)
    11a8:	bfc9                	j	117a <_fflush_r+0x26>
    11aa:	40f2                	lw	ra,28(sp)
    11ac:	4462                	lw	s0,24(sp)
    11ae:	4501                	li	a0,0
    11b0:	6105                	addi	sp,sp,32
    11b2:	8082                	ret
    11b4:	4501                	li	a0,0
    11b6:	8082                	ret

000011b8 <std>:
std():
    11b8:	1141                	addi	sp,sp,-16
    11ba:	c422                	sw	s0,8(sp)
    11bc:	c606                	sw	ra,12(sp)
    11be:	842a                	mv	s0,a0
    11c0:	00b51623          	sh	a1,12(a0)
    11c4:	00c51723          	sh	a2,14(a0)
    11c8:	00052023          	sw	zero,0(a0)
    11cc:	00052223          	sw	zero,4(a0)
    11d0:	00052423          	sw	zero,8(a0)
    11d4:	06052223          	sw	zero,100(a0)
    11d8:	00052823          	sw	zero,16(a0)
    11dc:	00052a23          	sw	zero,20(a0)
    11e0:	00052c23          	sw	zero,24(a0)
    11e4:	4621                	li	a2,8
    11e6:	4581                	li	a1,0
    11e8:	05c50513          	addi	a0,a0,92
    11ec:	d8eff0ef          	jal	ra,77a <memset>
    11f0:	00001797          	auipc	a5,0x1
    11f4:	bd878793          	addi	a5,a5,-1064 # 1dc8 <__sread>
    11f8:	d05c                	sw	a5,36(s0)
    11fa:	00001797          	auipc	a5,0x1
    11fe:	bfe78793          	addi	a5,a5,-1026 # 1df8 <__swrite>
    1202:	d41c                	sw	a5,40(s0)
    1204:	00001797          	auipc	a5,0x1
    1208:	c4278793          	addi	a5,a5,-958 # 1e46 <__sseek>
    120c:	d45c                	sw	a5,44(s0)
    120e:	00001797          	auipc	a5,0x1
    1212:	c6e78793          	addi	a5,a5,-914 # 1e7c <__sclose>
    1216:	d000                	sw	s0,32(s0)
    1218:	d81c                	sw	a5,48(s0)
    121a:	40b2                	lw	ra,12(sp)
    121c:	4422                	lw	s0,8(sp)
    121e:	0141                	addi	sp,sp,16
    1220:	8082                	ret

00001222 <_cleanup_r>:
_cleanup_r():
    1222:	00000597          	auipc	a1,0x0
    1226:	f3258593          	addi	a1,a1,-206 # 1154 <_fflush_r>
    122a:	aa89                	j	137c <_fwalk_reent>

0000122c <__sfmoreglue>:
__sfmoreglue():
    122c:	1141                	addi	sp,sp,-16
    122e:	c226                	sw	s1,4(sp)
    1230:	06800613          	li	a2,104
    1234:	fff58493          	addi	s1,a1,-1
    1238:	02c484b3          	mul	s1,s1,a2
    123c:	c04a                	sw	s2,0(sp)
    123e:	892e                	mv	s2,a1
    1240:	c422                	sw	s0,8(sp)
    1242:	c606                	sw	ra,12(sp)
    1244:	07448593          	addi	a1,s1,116
    1248:	2681                	jal	1588 <_malloc_r>
    124a:	842a                	mv	s0,a0
    124c:	cd01                	beqz	a0,1264 <__sfmoreglue+0x38>
    124e:	00052023          	sw	zero,0(a0)
    1252:	01252223          	sw	s2,4(a0)
    1256:	0531                	addi	a0,a0,12
    1258:	c408                	sw	a0,8(s0)
    125a:	06848613          	addi	a2,s1,104
    125e:	4581                	li	a1,0
    1260:	d1aff0ef          	jal	ra,77a <memset>
    1264:	8522                	mv	a0,s0
    1266:	40b2                	lw	ra,12(sp)
    1268:	4422                	lw	s0,8(sp)
    126a:	4492                	lw	s1,4(sp)
    126c:	4902                	lw	s2,0(sp)
    126e:	0141                	addi	sp,sp,16
    1270:	8082                	ret

00001272 <__sinit>:
__sinit():
    1272:	4d1c                	lw	a5,24(a0)
    1274:	e3bd                	bnez	a5,12da <__sinit+0x68>
    1276:	1141                	addi	sp,sp,-16
    1278:	c606                	sw	ra,12(sp)
    127a:	c422                	sw	s0,8(sp)
    127c:	00000797          	auipc	a5,0x0
    1280:	fa678793          	addi	a5,a5,-90 # 1222 <_cleanup_r>
    1284:	d51c                	sw	a5,40(a0)
    1286:	00001797          	auipc	a5,0x1
    128a:	e6678793          	addi	a5,a5,-410 # 20ec <_global_impure_ptr>
    128e:	439c                	lw	a5,0(a5)
    1290:	04052423          	sw	zero,72(a0)
    1294:	04052623          	sw	zero,76(a0)
    1298:	04052823          	sw	zero,80(a0)
    129c:	00f51463          	bne	a0,a5,12a4 <__sinit+0x32>
    12a0:	4785                	li	a5,1
    12a2:	cd1c                	sw	a5,24(a0)
    12a4:	842a                	mv	s0,a0
    12a6:	281d                	jal	12dc <__sfp>
    12a8:	c048                	sw	a0,4(s0)
    12aa:	8522                	mv	a0,s0
    12ac:	2805                	jal	12dc <__sfp>
    12ae:	c408                	sw	a0,8(s0)
    12b0:	8522                	mv	a0,s0
    12b2:	202d                	jal	12dc <__sfp>
    12b4:	c448                	sw	a0,12(s0)
    12b6:	4048                	lw	a0,4(s0)
    12b8:	4601                	li	a2,0
    12ba:	4591                	li	a1,4
    12bc:	3df5                	jal	11b8 <std>
    12be:	4408                	lw	a0,8(s0)
    12c0:	4605                	li	a2,1
    12c2:	45a5                	li	a1,9
    12c4:	3dd5                	jal	11b8 <std>
    12c6:	4448                	lw	a0,12(s0)
    12c8:	4609                	li	a2,2
    12ca:	45c9                	li	a1,18
    12cc:	35f5                	jal	11b8 <std>
    12ce:	4785                	li	a5,1
    12d0:	cc1c                	sw	a5,24(s0)
    12d2:	40b2                	lw	ra,12(sp)
    12d4:	4422                	lw	s0,8(sp)
    12d6:	0141                	addi	sp,sp,16
    12d8:	8082                	ret
    12da:	8082                	ret

000012dc <__sfp>:
__sfp():
    12dc:	1141                	addi	sp,sp,-16
    12de:	00001797          	auipc	a5,0x1
    12e2:	e0e78793          	addi	a5,a5,-498 # 20ec <_global_impure_ptr>
    12e6:	c226                	sw	s1,4(sp)
    12e8:	4384                	lw	s1,0(a5)
    12ea:	c04a                	sw	s2,0(sp)
    12ec:	c606                	sw	ra,12(sp)
    12ee:	4c9c                	lw	a5,24(s1)
    12f0:	c422                	sw	s0,8(sp)
    12f2:	892a                	mv	s2,a0
    12f4:	e399                	bnez	a5,12fa <__sfp+0x1e>
    12f6:	8526                	mv	a0,s1
    12f8:	3fad                	jal	1272 <__sinit>
    12fa:	04848493          	addi	s1,s1,72
    12fe:	4480                	lw	s0,8(s1)
    1300:	40dc                	lw	a5,4(s1)
    1302:	17fd                	addi	a5,a5,-1
    1304:	0007d663          	bgez	a5,1310 <__sfp+0x34>
    1308:	409c                	lw	a5,0(s1)
    130a:	cfb9                	beqz	a5,1368 <__sfp+0x8c>
    130c:	4084                	lw	s1,0(s1)
    130e:	bfc5                	j	12fe <__sfp+0x22>
    1310:	00c41703          	lh	a4,12(s0)
    1314:	e739                	bnez	a4,1362 <__sfp+0x86>
    1316:	77c1                	lui	a5,0xffff0
    1318:	0785                	addi	a5,a5,1
    131a:	06042223          	sw	zero,100(s0)
    131e:	00042023          	sw	zero,0(s0)
    1322:	00042223          	sw	zero,4(s0)
    1326:	00042423          	sw	zero,8(s0)
    132a:	c45c                	sw	a5,12(s0)
    132c:	00042823          	sw	zero,16(s0)
    1330:	00042a23          	sw	zero,20(s0)
    1334:	00042c23          	sw	zero,24(s0)
    1338:	4621                	li	a2,8
    133a:	4581                	li	a1,0
    133c:	05c40513          	addi	a0,s0,92
    1340:	c3aff0ef          	jal	ra,77a <memset>
    1344:	02042a23          	sw	zero,52(s0)
    1348:	02042c23          	sw	zero,56(s0)
    134c:	04042423          	sw	zero,72(s0)
    1350:	04042623          	sw	zero,76(s0)
    1354:	8522                	mv	a0,s0
    1356:	40b2                	lw	ra,12(sp)
    1358:	4422                	lw	s0,8(sp)
    135a:	4492                	lw	s1,4(sp)
    135c:	4902                	lw	s2,0(sp)
    135e:	0141                	addi	sp,sp,16
    1360:	8082                	ret
    1362:	06840413          	addi	s0,s0,104
    1366:	bf71                	j	1302 <__sfp+0x26>
    1368:	4591                	li	a1,4
    136a:	854a                	mv	a0,s2
    136c:	35c1                	jal	122c <__sfmoreglue>
    136e:	c088                	sw	a0,0(s1)
    1370:	fd51                	bnez	a0,130c <__sfp+0x30>
    1372:	47b1                	li	a5,12
    1374:	00f92023          	sw	a5,0(s2)
    1378:	4401                	li	s0,0
    137a:	bfe9                	j	1354 <__sfp+0x78>

0000137c <_fwalk_reent>:
_fwalk_reent():
    137c:	7179                	addi	sp,sp,-48
    137e:	d422                	sw	s0,40(sp)
    1380:	d04a                	sw	s2,32(sp)
    1382:	cc52                	sw	s4,24(sp)
    1384:	ca56                	sw	s5,20(sp)
    1386:	c85a                	sw	s6,16(sp)
    1388:	c65e                	sw	s7,12(sp)
    138a:	d606                	sw	ra,44(sp)
    138c:	d226                	sw	s1,36(sp)
    138e:	ce4e                	sw	s3,28(sp)
    1390:	8a2a                	mv	s4,a0
    1392:	8aae                	mv	s5,a1
    1394:	04850413          	addi	s0,a0,72
    1398:	4901                	li	s2,0
    139a:	4b05                	li	s6,1
    139c:	5bfd                	li	s7,-1
    139e:	ec09                	bnez	s0,13b8 <_fwalk_reent+0x3c>
    13a0:	50b2                	lw	ra,44(sp)
    13a2:	5422                	lw	s0,40(sp)
    13a4:	854a                	mv	a0,s2
    13a6:	5492                	lw	s1,36(sp)
    13a8:	5902                	lw	s2,32(sp)
    13aa:	49f2                	lw	s3,28(sp)
    13ac:	4a62                	lw	s4,24(sp)
    13ae:	4ad2                	lw	s5,20(sp)
    13b0:	4b42                	lw	s6,16(sp)
    13b2:	4bb2                	lw	s7,12(sp)
    13b4:	6145                	addi	sp,sp,48
    13b6:	8082                	ret
    13b8:	4404                	lw	s1,8(s0)
    13ba:	00442983          	lw	s3,4(s0)
    13be:	19fd                	addi	s3,s3,-1
    13c0:	0009d463          	bgez	s3,13c8 <_fwalk_reent+0x4c>
    13c4:	4000                	lw	s0,0(s0)
    13c6:	bfe1                	j	139e <_fwalk_reent+0x22>
    13c8:	00c4d783          	lhu	a5,12(s1)
    13cc:	00fb7b63          	bgeu	s6,a5,13e2 <_fwalk_reent+0x66>
    13d0:	00e49783          	lh	a5,14(s1)
    13d4:	01778763          	beq	a5,s7,13e2 <_fwalk_reent+0x66>
    13d8:	85a6                	mv	a1,s1
    13da:	8552                	mv	a0,s4
    13dc:	9a82                	jalr	s5
    13de:	00a96933          	or	s2,s2,a0
    13e2:	06848493          	addi	s1,s1,104
    13e6:	bfe1                	j	13be <_fwalk_reent+0x42>

000013e8 <__swhatbuf_r>:
__swhatbuf_r():
    13e8:	7119                	addi	sp,sp,-128
    13ea:	daa6                	sw	s1,116(sp)
    13ec:	84ae                	mv	s1,a1
    13ee:	00e59583          	lh	a1,14(a1)
    13f2:	dca2                	sw	s0,120(sp)
    13f4:	de86                	sw	ra,124(sp)
    13f6:	8432                	mv	s0,a2
    13f8:	0005dc63          	bgez	a1,1410 <__swhatbuf_r+0x28>
    13fc:	00c4d783          	lhu	a5,12(s1)
    1400:	0006a023          	sw	zero,0(a3)
    1404:	0807f793          	andi	a5,a5,128
    1408:	e785                	bnez	a5,1430 <__swhatbuf_r+0x48>
    140a:	40000793          	li	a5,1024
    140e:	a01d                	j	1434 <__swhatbuf_r+0x4c>
    1410:	0830                	addi	a2,sp,24
    1412:	c636                	sw	a3,12(sp)
    1414:	2c5000ef          	jal	ra,1ed8 <_fstat_r>
    1418:	46b2                	lw	a3,12(sp)
    141a:	fe0541e3          	bltz	a0,13fc <__swhatbuf_r+0x14>
    141e:	4772                	lw	a4,28(sp)
    1420:	67bd                	lui	a5,0xf
    1422:	8ff9                	and	a5,a5,a4
    1424:	7779                	lui	a4,0xffffe
    1426:	97ba                	add	a5,a5,a4
    1428:	0017b793          	seqz	a5,a5
    142c:	c29c                	sw	a5,0(a3)
    142e:	bff1                	j	140a <__swhatbuf_r+0x22>
    1430:	04000793          	li	a5,64
    1434:	c01c                	sw	a5,0(s0)
    1436:	50f6                	lw	ra,124(sp)
    1438:	5466                	lw	s0,120(sp)
    143a:	54d6                	lw	s1,116(sp)
    143c:	4501                	li	a0,0
    143e:	6109                	addi	sp,sp,128
    1440:	8082                	ret

00001442 <__smakebuf_r>:
__smakebuf_r():
    1442:	00c5d783          	lhu	a5,12(a1)
    1446:	1101                	addi	sp,sp,-32
    1448:	cc22                	sw	s0,24(sp)
    144a:	ce06                	sw	ra,28(sp)
    144c:	ca26                	sw	s1,20(sp)
    144e:	c84a                	sw	s2,16(sp)
    1450:	8b89                	andi	a5,a5,2
    1452:	842e                	mv	s0,a1
    1454:	cf89                	beqz	a5,146e <__smakebuf_r+0x2c>
    1456:	04740793          	addi	a5,s0,71
    145a:	c01c                	sw	a5,0(s0)
    145c:	c81c                	sw	a5,16(s0)
    145e:	4785                	li	a5,1
    1460:	c85c                	sw	a5,20(s0)
    1462:	40f2                	lw	ra,28(sp)
    1464:	4462                	lw	s0,24(sp)
    1466:	44d2                	lw	s1,20(sp)
    1468:	4942                	lw	s2,16(sp)
    146a:	6105                	addi	sp,sp,32
    146c:	8082                	ret
    146e:	0074                	addi	a3,sp,12
    1470:	0030                	addi	a2,sp,8
    1472:	84aa                	mv	s1,a0
    1474:	3f95                	jal	13e8 <__swhatbuf_r>
    1476:	45a2                	lw	a1,8(sp)
    1478:	892a                	mv	s2,a0
    147a:	8526                	mv	a0,s1
    147c:	2231                	jal	1588 <_malloc_r>
    147e:	ed01                	bnez	a0,1496 <__smakebuf_r+0x54>
    1480:	00c41783          	lh	a5,12(s0)
    1484:	2007f713          	andi	a4,a5,512
    1488:	ff69                	bnez	a4,1462 <__smakebuf_r+0x20>
    148a:	9bf1                	andi	a5,a5,-4
    148c:	0027e793          	ori	a5,a5,2
    1490:	00f41623          	sh	a5,12(s0)
    1494:	b7c9                	j	1456 <__smakebuf_r+0x14>
    1496:	00000797          	auipc	a5,0x0
    149a:	d8c78793          	addi	a5,a5,-628 # 1222 <_cleanup_r>
    149e:	d49c                	sw	a5,40(s1)
    14a0:	00c45783          	lhu	a5,12(s0)
    14a4:	c008                	sw	a0,0(s0)
    14a6:	c808                	sw	a0,16(s0)
    14a8:	0807e793          	ori	a5,a5,128
    14ac:	00f41623          	sh	a5,12(s0)
    14b0:	47a2                	lw	a5,8(sp)
    14b2:	c85c                	sw	a5,20(s0)
    14b4:	47b2                	lw	a5,12(sp)
    14b6:	cf91                	beqz	a5,14d2 <__smakebuf_r+0x90>
    14b8:	00e41583          	lh	a1,14(s0)
    14bc:	8526                	mv	a0,s1
    14be:	245000ef          	jal	ra,1f02 <_isatty_r>
    14c2:	c901                	beqz	a0,14d2 <__smakebuf_r+0x90>
    14c4:	00c45783          	lhu	a5,12(s0)
    14c8:	9bf1                	andi	a5,a5,-4
    14ca:	0017e793          	ori	a5,a5,1
    14ce:	00f41623          	sh	a5,12(s0)
    14d2:	00c45783          	lhu	a5,12(s0)
    14d6:	00f96933          	or	s2,s2,a5
    14da:	01241623          	sh	s2,12(s0)
    14de:	b751                	j	1462 <__smakebuf_r+0x20>

000014e0 <_free_r>:
_free_r():
    14e0:	c1dd                	beqz	a1,1586 <_free_r+0xa6>
    14e2:	ffc5a783          	lw	a5,-4(a1)
    14e6:	1141                	addi	sp,sp,-16
    14e8:	c422                	sw	s0,8(sp)
    14ea:	c606                	sw	ra,12(sp)
    14ec:	c226                	sw	s1,4(sp)
    14ee:	ffc58413          	addi	s0,a1,-4
    14f2:	0007d363          	bgez	a5,14f8 <_free_r+0x18>
    14f6:	943e                	add	s0,s0,a5
    14f8:	84aa                	mv	s1,a0
    14fa:	277000ef          	jal	ra,1f70 <__malloc_lock>
    14fe:	80c18793          	addi	a5,gp,-2036 # 2000406c <__malloc_free_list>
    1502:	439c                	lw	a5,0(a5)
    1504:	ef81                	bnez	a5,151c <_free_r+0x3c>
    1506:	00042223          	sw	zero,4(s0)
    150a:	8081a623          	sw	s0,-2036(gp) # 2000406c <__malloc_free_list>
    150e:	4422                	lw	s0,8(sp)
    1510:	40b2                	lw	ra,12(sp)
    1512:	8526                	mv	a0,s1
    1514:	4492                	lw	s1,4(sp)
    1516:	0141                	addi	sp,sp,16
    1518:	25b0006f          	j	1f72 <__malloc_unlock>
    151c:	00f47e63          	bgeu	s0,a5,1538 <_free_r+0x58>
    1520:	4014                	lw	a3,0(s0)
    1522:	00d40733          	add	a4,s0,a3
    1526:	00e79663          	bne	a5,a4,1532 <_free_r+0x52>
    152a:	4398                	lw	a4,0(a5)
    152c:	43dc                	lw	a5,4(a5)
    152e:	9736                	add	a4,a4,a3
    1530:	c018                	sw	a4,0(s0)
    1532:	c05c                	sw	a5,4(s0)
    1534:	bfd9                	j	150a <_free_r+0x2a>
    1536:	87ba                	mv	a5,a4
    1538:	43d8                	lw	a4,4(a5)
    153a:	c319                	beqz	a4,1540 <_free_r+0x60>
    153c:	fee47de3          	bgeu	s0,a4,1536 <_free_r+0x56>
    1540:	4394                	lw	a3,0(a5)
    1542:	00d78633          	add	a2,a5,a3
    1546:	00861f63          	bne	a2,s0,1564 <_free_r+0x84>
    154a:	4010                	lw	a2,0(s0)
    154c:	96b2                	add	a3,a3,a2
    154e:	c394                	sw	a3,0(a5)
    1550:	00d78633          	add	a2,a5,a3
    1554:	fac71de3          	bne	a4,a2,150e <_free_r+0x2e>
    1558:	4310                	lw	a2,0(a4)
    155a:	4358                	lw	a4,4(a4)
    155c:	96b2                	add	a3,a3,a2
    155e:	c394                	sw	a3,0(a5)
    1560:	c3d8                	sw	a4,4(a5)
    1562:	b775                	j	150e <_free_r+0x2e>
    1564:	00c47563          	bgeu	s0,a2,156e <_free_r+0x8e>
    1568:	47b1                	li	a5,12
    156a:	c09c                	sw	a5,0(s1)
    156c:	b74d                	j	150e <_free_r+0x2e>
    156e:	4010                	lw	a2,0(s0)
    1570:	00c406b3          	add	a3,s0,a2
    1574:	00d71663          	bne	a4,a3,1580 <_free_r+0xa0>
    1578:	4314                	lw	a3,0(a4)
    157a:	4358                	lw	a4,4(a4)
    157c:	96b2                	add	a3,a3,a2
    157e:	c014                	sw	a3,0(s0)
    1580:	c058                	sw	a4,4(s0)
    1582:	c3c0                	sw	s0,4(a5)
    1584:	b769                	j	150e <_free_r+0x2e>
    1586:	8082                	ret

00001588 <_malloc_r>:
_malloc_r():
    1588:	1101                	addi	sp,sp,-32
    158a:	ca26                	sw	s1,20(sp)
    158c:	00358493          	addi	s1,a1,3
    1590:	98f1                	andi	s1,s1,-4
    1592:	ce06                	sw	ra,28(sp)
    1594:	cc22                	sw	s0,24(sp)
    1596:	c84a                	sw	s2,16(sp)
    1598:	c64e                	sw	s3,12(sp)
    159a:	04a1                	addi	s1,s1,8
    159c:	47b1                	li	a5,12
    159e:	04f4f563          	bgeu	s1,a5,15e8 <_malloc_r+0x60>
    15a2:	44b1                	li	s1,12
    15a4:	04b4e463          	bltu	s1,a1,15ec <_malloc_r+0x64>
    15a8:	892a                	mv	s2,a0
    15aa:	1c7000ef          	jal	ra,1f70 <__malloc_lock>
    15ae:	80c18793          	addi	a5,gp,-2036 # 2000406c <__malloc_free_list>
    15b2:	4398                	lw	a4,0(a5)
    15b4:	843a                	mv	s0,a4
    15b6:	e429                	bnez	s0,1600 <_malloc_r+0x78>
    15b8:	81018793          	addi	a5,gp,-2032 # 20004070 <__malloc_sbrk_start>
    15bc:	439c                	lw	a5,0(a5)
    15be:	e799                	bnez	a5,15cc <_malloc_r+0x44>
    15c0:	4581                	li	a1,0
    15c2:	854a                	mv	a0,s2
    15c4:	7dc000ef          	jal	ra,1da0 <_sbrk_r>
    15c8:	80a1a823          	sw	a0,-2032(gp) # 20004070 <__malloc_sbrk_start>
    15cc:	85a6                	mv	a1,s1
    15ce:	854a                	mv	a0,s2
    15d0:	7d0000ef          	jal	ra,1da0 <_sbrk_r>
    15d4:	59fd                	li	s3,-1
    15d6:	07351963          	bne	a0,s3,1648 <_malloc_r+0xc0>
    15da:	47b1                	li	a5,12
    15dc:	00f92023          	sw	a5,0(s2)
    15e0:	854a                	mv	a0,s2
    15e2:	191000ef          	jal	ra,1f72 <__malloc_unlock>
    15e6:	a029                	j	15f0 <_malloc_r+0x68>
    15e8:	fa04dee3          	bgez	s1,15a4 <_malloc_r+0x1c>
    15ec:	47b1                	li	a5,12
    15ee:	c11c                	sw	a5,0(a0)
    15f0:	4501                	li	a0,0
    15f2:	40f2                	lw	ra,28(sp)
    15f4:	4462                	lw	s0,24(sp)
    15f6:	44d2                	lw	s1,20(sp)
    15f8:	4942                	lw	s2,16(sp)
    15fa:	49b2                	lw	s3,12(sp)
    15fc:	6105                	addi	sp,sp,32
    15fe:	8082                	ret
    1600:	401c                	lw	a5,0(s0)
    1602:	8f85                	sub	a5,a5,s1
    1604:	0207cf63          	bltz	a5,1642 <_malloc_r+0xba>
    1608:	46ad                	li	a3,11
    160a:	00f6f663          	bgeu	a3,a5,1616 <_malloc_r+0x8e>
    160e:	c01c                	sw	a5,0(s0)
    1610:	943e                	add	s0,s0,a5
    1612:	c004                	sw	s1,0(s0)
    1614:	a031                	j	1620 <_malloc_r+0x98>
    1616:	405c                	lw	a5,4(s0)
    1618:	02871363          	bne	a4,s0,163e <_malloc_r+0xb6>
    161c:	80f1a623          	sw	a5,-2036(gp) # 2000406c <__malloc_free_list>
    1620:	854a                	mv	a0,s2
    1622:	151000ef          	jal	ra,1f72 <__malloc_unlock>
    1626:	00b40513          	addi	a0,s0,11
    162a:	00440793          	addi	a5,s0,4
    162e:	9961                	andi	a0,a0,-8
    1630:	40f50733          	sub	a4,a0,a5
    1634:	df5d                	beqz	a4,15f2 <_malloc_r+0x6a>
    1636:	943a                	add	s0,s0,a4
    1638:	8f89                	sub	a5,a5,a0
    163a:	c01c                	sw	a5,0(s0)
    163c:	bf5d                	j	15f2 <_malloc_r+0x6a>
    163e:	c35c                	sw	a5,4(a4)
    1640:	b7c5                	j	1620 <_malloc_r+0x98>
    1642:	8722                	mv	a4,s0
    1644:	4040                	lw	s0,4(s0)
    1646:	bf85                	j	15b6 <_malloc_r+0x2e>
    1648:	00350413          	addi	s0,a0,3
    164c:	9871                	andi	s0,s0,-4
    164e:	fc8502e3          	beq	a0,s0,1612 <_malloc_r+0x8a>
    1652:	40a405b3          	sub	a1,s0,a0
    1656:	854a                	mv	a0,s2
    1658:	27a1                	jal	1da0 <_sbrk_r>
    165a:	fb351ce3          	bne	a0,s3,1612 <_malloc_r+0x8a>
    165e:	bfb5                	j	15da <_malloc_r+0x52>

00001660 <__sfputc_r>:
__sfputc_r():
    1660:	461c                	lw	a5,8(a2)
    1662:	17fd                	addi	a5,a5,-1
    1664:	c61c                	sw	a5,8(a2)
    1666:	0007da63          	bgez	a5,167a <__sfputc_r+0x1a>
    166a:	4e18                	lw	a4,24(a2)
    166c:	00e7c563          	blt	a5,a4,1676 <__sfputc_r+0x16>
    1670:	47a9                	li	a5,10
    1672:	00f59463          	bne	a1,a5,167a <__sfputc_r+0x1a>
    1676:	fd2ff06f          	j	e48 <__swbuf_r>
    167a:	421c                	lw	a5,0(a2)
    167c:	852e                	mv	a0,a1
    167e:	00178713          	addi	a4,a5,1
    1682:	c218                	sw	a4,0(a2)
    1684:	00b78023          	sb	a1,0(a5)
    1688:	8082                	ret

0000168a <__sfputs_r>:
__sfputs_r():
    168a:	1101                	addi	sp,sp,-32
    168c:	cc22                	sw	s0,24(sp)
    168e:	ca26                	sw	s1,20(sp)
    1690:	c84a                	sw	s2,16(sp)
    1692:	c64e                	sw	s3,12(sp)
    1694:	c452                	sw	s4,8(sp)
    1696:	ce06                	sw	ra,28(sp)
    1698:	892a                	mv	s2,a0
    169a:	89ae                	mv	s3,a1
    169c:	8432                	mv	s0,a2
    169e:	00d604b3          	add	s1,a2,a3
    16a2:	5a7d                	li	s4,-1
    16a4:	00941463          	bne	s0,s1,16ac <__sfputs_r+0x22>
    16a8:	4501                	li	a0,0
    16aa:	a809                	j	16bc <__sfputs_r+0x32>
    16ac:	00044583          	lbu	a1,0(s0)
    16b0:	864e                	mv	a2,s3
    16b2:	854a                	mv	a0,s2
    16b4:	3775                	jal	1660 <__sfputc_r>
    16b6:	0405                	addi	s0,s0,1
    16b8:	ff4516e3          	bne	a0,s4,16a4 <__sfputs_r+0x1a>
    16bc:	40f2                	lw	ra,28(sp)
    16be:	4462                	lw	s0,24(sp)
    16c0:	44d2                	lw	s1,20(sp)
    16c2:	4942                	lw	s2,16(sp)
    16c4:	49b2                	lw	s3,12(sp)
    16c6:	4a22                	lw	s4,8(sp)
    16c8:	6105                	addi	sp,sp,32
    16ca:	8082                	ret

000016cc <_vfiprintf_r>:
_vfiprintf_r():
    16cc:	7135                	addi	sp,sp,-160
    16ce:	cd22                	sw	s0,152(sp)
    16d0:	cb26                	sw	s1,148(sp)
    16d2:	c94a                	sw	s2,144(sp)
    16d4:	c74e                	sw	s3,140(sp)
    16d6:	cf06                	sw	ra,156(sp)
    16d8:	c552                	sw	s4,136(sp)
    16da:	c356                	sw	s5,132(sp)
    16dc:	c15a                	sw	s6,128(sp)
    16de:	dede                	sw	s7,124(sp)
    16e0:	dce2                	sw	s8,120(sp)
    16e2:	dae6                	sw	s9,116(sp)
    16e4:	89aa                	mv	s3,a0
    16e6:	84ae                	mv	s1,a1
    16e8:	8932                	mv	s2,a2
    16ea:	8436                	mv	s0,a3
    16ec:	c501                	beqz	a0,16f4 <_vfiprintf_r+0x28>
    16ee:	4d1c                	lw	a5,24(a0)
    16f0:	e391                	bnez	a5,16f4 <_vfiprintf_r+0x28>
    16f2:	3641                	jal	1272 <__sinit>
    16f4:	00001797          	auipc	a5,0x1
    16f8:	97c78793          	addi	a5,a5,-1668 # 2070 <__sf_fake_stdin>
    16fc:	0cf49c63          	bne	s1,a5,17d4 <_vfiprintf_r+0x108>
    1700:	0049a483          	lw	s1,4(s3)
    1704:	00c4d783          	lhu	a5,12(s1)
    1708:	8ba1                	andi	a5,a5,8
    170a:	c7fd                	beqz	a5,17f8 <_vfiprintf_r+0x12c>
    170c:	489c                	lw	a5,16(s1)
    170e:	c7ed                	beqz	a5,17f8 <_vfiprintf_r+0x12c>
    1710:	02000793          	li	a5,32
    1714:	02f104a3          	sb	a5,41(sp)
    1718:	03000793          	li	a5,48
    171c:	d202                	sw	zero,36(sp)
    171e:	02f10523          	sb	a5,42(sp)
    1722:	c622                	sw	s0,12(sp)
    1724:	02500b93          	li	s7,37
    1728:	00001a97          	auipc	s5,0x1
    172c:	988a8a93          	addi	s5,s5,-1656 # 20b0 <__sf_fake_stdout+0x20>
    1730:	4c05                	li	s8,1
    1732:	4b29                	li	s6,10
    1734:	844a                	mv	s0,s2
    1736:	00044783          	lbu	a5,0(s0)
    173a:	c399                	beqz	a5,1740 <_vfiprintf_r+0x74>
    173c:	0f779163          	bne	a5,s7,181e <_vfiprintf_r+0x152>
    1740:	41240cb3          	sub	s9,s0,s2
    1744:	000c8d63          	beqz	s9,175e <_vfiprintf_r+0x92>
    1748:	86e6                	mv	a3,s9
    174a:	864a                	mv	a2,s2
    174c:	85a6                	mv	a1,s1
    174e:	854e                	mv	a0,s3
    1750:	3f2d                	jal	168a <__sfputs_r>
    1752:	57fd                	li	a5,-1
    1754:	1ef50763          	beq	a0,a5,1942 <_vfiprintf_r+0x276>
    1758:	5692                	lw	a3,36(sp)
    175a:	96e6                	add	a3,a3,s9
    175c:	d236                	sw	a3,36(sp)
    175e:	00044783          	lbu	a5,0(s0)
    1762:	1e078063          	beqz	a5,1942 <_vfiprintf_r+0x276>
    1766:	57fd                	li	a5,-1
    1768:	00140913          	addi	s2,s0,1
    176c:	c802                	sw	zero,16(sp)
    176e:	ce02                	sw	zero,28(sp)
    1770:	ca3e                	sw	a5,20(sp)
    1772:	cc02                	sw	zero,24(sp)
    1774:	040109a3          	sb	zero,83(sp)
    1778:	d482                	sw	zero,104(sp)
    177a:	00094583          	lbu	a1,0(s2)
    177e:	4615                	li	a2,5
    1780:	8556                	mv	a0,s5
    1782:	7d4000ef          	jal	ra,1f56 <memchr>
    1786:	00190413          	addi	s0,s2,1
    178a:	47c2                	lw	a5,16(sp)
    178c:	e959                	bnez	a0,1822 <_vfiprintf_r+0x156>
    178e:	0107f713          	andi	a4,a5,16
    1792:	c709                	beqz	a4,179c <_vfiprintf_r+0xd0>
    1794:	02000713          	li	a4,32
    1798:	04e109a3          	sb	a4,83(sp)
    179c:	0087f713          	andi	a4,a5,8
    17a0:	c709                	beqz	a4,17aa <_vfiprintf_r+0xde>
    17a2:	02b00713          	li	a4,43
    17a6:	04e109a3          	sb	a4,83(sp)
    17aa:	00094683          	lbu	a3,0(s2)
    17ae:	02a00713          	li	a4,42
    17b2:	08e68063          	beq	a3,a4,1832 <_vfiprintf_r+0x166>
    17b6:	47f2                	lw	a5,28(sp)
    17b8:	844a                	mv	s0,s2
    17ba:	4681                	li	a3,0
    17bc:	4625                	li	a2,9
    17be:	00044703          	lbu	a4,0(s0)
    17c2:	00140593          	addi	a1,s0,1
    17c6:	fd070713          	addi	a4,a4,-48 # ffffdfd0 <_eusrstack+0xdfff5fd0>
    17ca:	0ae67963          	bgeu	a2,a4,187c <_vfiprintf_r+0x1b0>
    17ce:	cab5                	beqz	a3,1842 <_vfiprintf_r+0x176>
    17d0:	ce3e                	sw	a5,28(sp)
    17d2:	a885                	j	1842 <_vfiprintf_r+0x176>
    17d4:	00001797          	auipc	a5,0x1
    17d8:	8bc78793          	addi	a5,a5,-1860 # 2090 <__sf_fake_stdout>
    17dc:	00f49563          	bne	s1,a5,17e6 <_vfiprintf_r+0x11a>
    17e0:	0089a483          	lw	s1,8(s3)
    17e4:	b705                	j	1704 <_vfiprintf_r+0x38>
    17e6:	00001797          	auipc	a5,0x1
    17ea:	86a78793          	addi	a5,a5,-1942 # 2050 <__sf_fake_stderr>
    17ee:	f0f49be3          	bne	s1,a5,1704 <_vfiprintf_r+0x38>
    17f2:	00c9a483          	lw	s1,12(s3)
    17f6:	b739                	j	1704 <_vfiprintf_r+0x38>
    17f8:	85a6                	mv	a1,s1
    17fa:	854e                	mv	a0,s3
    17fc:	f0cff0ef          	jal	ra,f08 <__swsetup_r>
    1800:	d901                	beqz	a0,1710 <_vfiprintf_r+0x44>
    1802:	557d                	li	a0,-1
    1804:	40fa                	lw	ra,156(sp)
    1806:	446a                	lw	s0,152(sp)
    1808:	44da                	lw	s1,148(sp)
    180a:	494a                	lw	s2,144(sp)
    180c:	49ba                	lw	s3,140(sp)
    180e:	4a2a                	lw	s4,136(sp)
    1810:	4a9a                	lw	s5,132(sp)
    1812:	4b0a                	lw	s6,128(sp)
    1814:	5bf6                	lw	s7,124(sp)
    1816:	5c66                	lw	s8,120(sp)
    1818:	5cd6                	lw	s9,116(sp)
    181a:	610d                	addi	sp,sp,160
    181c:	8082                	ret
    181e:	0405                	addi	s0,s0,1
    1820:	bf19                	j	1736 <_vfiprintf_r+0x6a>
    1822:	41550533          	sub	a0,a0,s5
    1826:	00ac1533          	sll	a0,s8,a0
    182a:	8fc9                	or	a5,a5,a0
    182c:	c83e                	sw	a5,16(sp)
    182e:	8922                	mv	s2,s0
    1830:	b7a9                	j	177a <_vfiprintf_r+0xae>
    1832:	4732                	lw	a4,12(sp)
    1834:	00470693          	addi	a3,a4,4
    1838:	4318                	lw	a4,0(a4)
    183a:	c636                	sw	a3,12(sp)
    183c:	02074963          	bltz	a4,186e <_vfiprintf_r+0x1a2>
    1840:	ce3a                	sw	a4,28(sp)
    1842:	00044703          	lbu	a4,0(s0)
    1846:	02e00793          	li	a5,46
    184a:	04f71f63          	bne	a4,a5,18a8 <_vfiprintf_r+0x1dc>
    184e:	00144703          	lbu	a4,1(s0)
    1852:	02a00793          	li	a5,42
    1856:	02f71b63          	bne	a4,a5,188c <_vfiprintf_r+0x1c0>
    185a:	47b2                	lw	a5,12(sp)
    185c:	0409                	addi	s0,s0,2
    185e:	00478713          	addi	a4,a5,4
    1862:	439c                	lw	a5,0(a5)
    1864:	c63a                	sw	a4,12(sp)
    1866:	0207c163          	bltz	a5,1888 <_vfiprintf_r+0x1bc>
    186a:	ca3e                	sw	a5,20(sp)
    186c:	a835                	j	18a8 <_vfiprintf_r+0x1dc>
    186e:	40e00733          	neg	a4,a4
    1872:	0027e793          	ori	a5,a5,2
    1876:	ce3a                	sw	a4,28(sp)
    1878:	c83e                	sw	a5,16(sp)
    187a:	b7e1                	j	1842 <_vfiprintf_r+0x176>
    187c:	036787b3          	mul	a5,a5,s6
    1880:	4685                	li	a3,1
    1882:	842e                	mv	s0,a1
    1884:	97ba                	add	a5,a5,a4
    1886:	bf25                	j	17be <_vfiprintf_r+0xf2>
    1888:	57fd                	li	a5,-1
    188a:	b7c5                	j	186a <_vfiprintf_r+0x19e>
    188c:	0405                	addi	s0,s0,1
    188e:	ca02                	sw	zero,20(sp)
    1890:	4681                	li	a3,0
    1892:	4781                	li	a5,0
    1894:	4625                	li	a2,9
    1896:	00044703          	lbu	a4,0(s0)
    189a:	00140593          	addi	a1,s0,1
    189e:	fd070713          	addi	a4,a4,-48
    18a2:	06e67663          	bgeu	a2,a4,190e <_vfiprintf_r+0x242>
    18a6:	f2f1                	bnez	a3,186a <_vfiprintf_r+0x19e>
    18a8:	00044583          	lbu	a1,0(s0)
    18ac:	460d                	li	a2,3
    18ae:	00001517          	auipc	a0,0x1
    18b2:	80a50513          	addi	a0,a0,-2038 # 20b8 <__sf_fake_stdout+0x28>
    18b6:	2545                	jal	1f56 <memchr>
    18b8:	cd11                	beqz	a0,18d4 <_vfiprintf_r+0x208>
    18ba:	00000797          	auipc	a5,0x0
    18be:	7fe78793          	addi	a5,a5,2046 # 20b8 <__sf_fake_stdout+0x28>
    18c2:	8d1d                	sub	a0,a0,a5
    18c4:	04000793          	li	a5,64
    18c8:	00a797b3          	sll	a5,a5,a0
    18cc:	4542                	lw	a0,16(sp)
    18ce:	0405                	addi	s0,s0,1
    18d0:	8d5d                	or	a0,a0,a5
    18d2:	c82a                	sw	a0,16(sp)
    18d4:	00044583          	lbu	a1,0(s0)
    18d8:	4619                	li	a2,6
    18da:	00000517          	auipc	a0,0x0
    18de:	7e250513          	addi	a0,a0,2018 # 20bc <__sf_fake_stdout+0x2c>
    18e2:	00140913          	addi	s2,s0,1
    18e6:	02b10423          	sb	a1,40(sp)
    18ea:	25b5                	jal	1f56 <memchr>
    18ec:	c13d                	beqz	a0,1952 <_vfiprintf_r+0x286>
    18ee:	ffffe797          	auipc	a5,0xffffe
    18f2:	71278793          	addi	a5,a5,1810 # 0 <_sinit>
    18f6:	e795                	bnez	a5,1922 <_vfiprintf_r+0x256>
    18f8:	4742                	lw	a4,16(sp)
    18fa:	47b2                	lw	a5,12(sp)
    18fc:	10077713          	andi	a4,a4,256
    1900:	cf09                	beqz	a4,191a <_vfiprintf_r+0x24e>
    1902:	0791                	addi	a5,a5,4
    1904:	c63e                	sw	a5,12(sp)
    1906:	5792                	lw	a5,36(sp)
    1908:	97d2                	add	a5,a5,s4
    190a:	d23e                	sw	a5,36(sp)
    190c:	b525                	j	1734 <_vfiprintf_r+0x68>
    190e:	036787b3          	mul	a5,a5,s6
    1912:	4685                	li	a3,1
    1914:	842e                	mv	s0,a1
    1916:	97ba                	add	a5,a5,a4
    1918:	bfbd                	j	1896 <_vfiprintf_r+0x1ca>
    191a:	079d                	addi	a5,a5,7
    191c:	9be1                	andi	a5,a5,-8
    191e:	07a1                	addi	a5,a5,8
    1920:	b7d5                	j	1904 <_vfiprintf_r+0x238>
    1922:	0078                	addi	a4,sp,12
    1924:	00000697          	auipc	a3,0x0
    1928:	d6668693          	addi	a3,a3,-666 # 168a <__sfputs_r>
    192c:	8626                	mv	a2,s1
    192e:	080c                	addi	a1,sp,16
    1930:	854e                	mv	a0,s3
    1932:	00000097          	auipc	ra,0x0
    1936:	000000e7          	jalr	zero # 0 <_sinit>
    193a:	57fd                	li	a5,-1
    193c:	8a2a                	mv	s4,a0
    193e:	fcf514e3          	bne	a0,a5,1906 <_vfiprintf_r+0x23a>
    1942:	00c4d783          	lhu	a5,12(s1)
    1946:	0407f793          	andi	a5,a5,64
    194a:	ea079ce3          	bnez	a5,1802 <_vfiprintf_r+0x136>
    194e:	5512                	lw	a0,36(sp)
    1950:	bd55                	j	1804 <_vfiprintf_r+0x138>
    1952:	0078                	addi	a4,sp,12
    1954:	00000697          	auipc	a3,0x0
    1958:	d3668693          	addi	a3,a3,-714 # 168a <__sfputs_r>
    195c:	8626                	mv	a2,s1
    195e:	080c                	addi	a1,sp,16
    1960:	854e                	mv	a0,s3
    1962:	2a01                	jal	1a72 <_printf_i>
    1964:	bfd9                	j	193a <_vfiprintf_r+0x26e>

00001966 <_printf_common>:
_printf_common():
    1966:	7179                	addi	sp,sp,-48
    1968:	ca56                	sw	s5,20(sp)
    196a:	499c                	lw	a5,16(a1)
    196c:	8aba                	mv	s5,a4
    196e:	4598                	lw	a4,8(a1)
    1970:	d422                	sw	s0,40(sp)
    1972:	d226                	sw	s1,36(sp)
    1974:	ce4e                	sw	s3,28(sp)
    1976:	cc52                	sw	s4,24(sp)
    1978:	d606                	sw	ra,44(sp)
    197a:	d04a                	sw	s2,32(sp)
    197c:	c85a                	sw	s6,16(sp)
    197e:	c65e                	sw	s7,12(sp)
    1980:	89aa                	mv	s3,a0
    1982:	842e                	mv	s0,a1
    1984:	84b2                	mv	s1,a2
    1986:	8a36                	mv	s4,a3
    1988:	00e7d363          	bge	a5,a4,198e <_printf_common+0x28>
    198c:	87ba                	mv	a5,a4
    198e:	c09c                	sw	a5,0(s1)
    1990:	04344703          	lbu	a4,67(s0)
    1994:	c319                	beqz	a4,199a <_printf_common+0x34>
    1996:	0785                	addi	a5,a5,1
    1998:	c09c                	sw	a5,0(s1)
    199a:	401c                	lw	a5,0(s0)
    199c:	0207f793          	andi	a5,a5,32
    19a0:	c781                	beqz	a5,19a8 <_printf_common+0x42>
    19a2:	409c                	lw	a5,0(s1)
    19a4:	0789                	addi	a5,a5,2
    19a6:	c09c                	sw	a5,0(s1)
    19a8:	00042903          	lw	s2,0(s0)
    19ac:	00697913          	andi	s2,s2,6
    19b0:	00091a63          	bnez	s2,19c4 <_printf_common+0x5e>
    19b4:	01940b13          	addi	s6,s0,25
    19b8:	5bfd                	li	s7,-1
    19ba:	445c                	lw	a5,12(s0)
    19bc:	4098                	lw	a4,0(s1)
    19be:	8f99                	sub	a5,a5,a4
    19c0:	04f94c63          	blt	s2,a5,1a18 <_printf_common+0xb2>
    19c4:	401c                	lw	a5,0(s0)
    19c6:	04344683          	lbu	a3,67(s0)
    19ca:	0207f793          	andi	a5,a5,32
    19ce:	00d036b3          	snez	a3,a3
    19d2:	eba5                	bnez	a5,1a42 <_printf_common+0xdc>
    19d4:	04340613          	addi	a2,s0,67
    19d8:	85d2                	mv	a1,s4
    19da:	854e                	mv	a0,s3
    19dc:	9a82                	jalr	s5
    19de:	57fd                	li	a5,-1
    19e0:	04f50363          	beq	a0,a5,1a26 <_printf_common+0xc0>
    19e4:	401c                	lw	a5,0(s0)
    19e6:	4611                	li	a2,4
    19e8:	4098                	lw	a4,0(s1)
    19ea:	8b99                	andi	a5,a5,6
    19ec:	4454                	lw	a3,12(s0)
    19ee:	4481                	li	s1,0
    19f0:	00c79763          	bne	a5,a2,19fe <_printf_common+0x98>
    19f4:	40e684b3          	sub	s1,a3,a4
    19f8:	0004d363          	bgez	s1,19fe <_printf_common+0x98>
    19fc:	4481                	li	s1,0
    19fe:	441c                	lw	a5,8(s0)
    1a00:	4818                	lw	a4,16(s0)
    1a02:	00f75463          	bge	a4,a5,1a0a <_printf_common+0xa4>
    1a06:	8f99                	sub	a5,a5,a4
    1a08:	94be                	add	s1,s1,a5
    1a0a:	4901                	li	s2,0
    1a0c:	0469                	addi	s0,s0,26
    1a0e:	5b7d                	li	s6,-1
    1a10:	05249863          	bne	s1,s2,1a60 <_printf_common+0xfa>
    1a14:	4501                	li	a0,0
    1a16:	a809                	j	1a28 <_printf_common+0xc2>
    1a18:	4685                	li	a3,1
    1a1a:	865a                	mv	a2,s6
    1a1c:	85d2                	mv	a1,s4
    1a1e:	854e                	mv	a0,s3
    1a20:	9a82                	jalr	s5
    1a22:	01751e63          	bne	a0,s7,1a3e <_printf_common+0xd8>
    1a26:	557d                	li	a0,-1
    1a28:	50b2                	lw	ra,44(sp)
    1a2a:	5422                	lw	s0,40(sp)
    1a2c:	5492                	lw	s1,36(sp)
    1a2e:	5902                	lw	s2,32(sp)
    1a30:	49f2                	lw	s3,28(sp)
    1a32:	4a62                	lw	s4,24(sp)
    1a34:	4ad2                	lw	s5,20(sp)
    1a36:	4b42                	lw	s6,16(sp)
    1a38:	4bb2                	lw	s7,12(sp)
    1a3a:	6145                	addi	sp,sp,48
    1a3c:	8082                	ret
    1a3e:	0905                	addi	s2,s2,1
    1a40:	bfad                	j	19ba <_printf_common+0x54>
    1a42:	00d40733          	add	a4,s0,a3
    1a46:	03000613          	li	a2,48
    1a4a:	04c701a3          	sb	a2,67(a4)
    1a4e:	04544703          	lbu	a4,69(s0)
    1a52:	00168793          	addi	a5,a3,1
    1a56:	97a2                	add	a5,a5,s0
    1a58:	0689                	addi	a3,a3,2
    1a5a:	04e781a3          	sb	a4,67(a5)
    1a5e:	bf9d                	j	19d4 <_printf_common+0x6e>
    1a60:	4685                	li	a3,1
    1a62:	8622                	mv	a2,s0
    1a64:	85d2                	mv	a1,s4
    1a66:	854e                	mv	a0,s3
    1a68:	9a82                	jalr	s5
    1a6a:	fb650ee3          	beq	a0,s6,1a26 <_printf_common+0xc0>
    1a6e:	0905                	addi	s2,s2,1
    1a70:	b745                	j	1a10 <_printf_common+0xaa>

00001a72 <_printf_i>:
_printf_i():
    1a72:	7179                	addi	sp,sp,-48
    1a74:	d422                	sw	s0,40(sp)
    1a76:	d226                	sw	s1,36(sp)
    1a78:	d04a                	sw	s2,32(sp)
    1a7a:	ce4e                	sw	s3,28(sp)
    1a7c:	d606                	sw	ra,44(sp)
    1a7e:	cc52                	sw	s4,24(sp)
    1a80:	ca56                	sw	s5,20(sp)
    1a82:	c85a                	sw	s6,16(sp)
    1a84:	89b6                	mv	s3,a3
    1a86:	0185c683          	lbu	a3,24(a1)
    1a8a:	06900793          	li	a5,105
    1a8e:	8932                	mv	s2,a2
    1a90:	84aa                	mv	s1,a0
    1a92:	842e                	mv	s0,a1
    1a94:	04358613          	addi	a2,a1,67
    1a98:	02f68d63          	beq	a3,a5,1ad2 <_printf_i+0x60>
    1a9c:	06d7e263          	bltu	a5,a3,1b00 <_printf_i+0x8e>
    1aa0:	05800793          	li	a5,88
    1aa4:	18f68763          	beq	a3,a5,1c32 <_printf_i+0x1c0>
    1aa8:	00d7ed63          	bltu	a5,a3,1ac2 <_printf_i+0x50>
    1aac:	22068063          	beqz	a3,1ccc <_printf_i+0x25a>
    1ab0:	04300793          	li	a5,67
    1ab4:	0af68e63          	beq	a3,a5,1b70 <_printf_i+0xfe>
    1ab8:	04240a93          	addi	s5,s0,66
    1abc:	04d40123          	sb	a3,66(s0)
    1ac0:	a0c9                	j	1b82 <_printf_i+0x110>
    1ac2:	06300793          	li	a5,99
    1ac6:	0af68563          	beq	a3,a5,1b70 <_printf_i+0xfe>
    1aca:	06400793          	li	a5,100
    1ace:	fef695e3          	bne	a3,a5,1ab8 <_printf_i+0x46>
    1ad2:	401c                	lw	a5,0(s0)
    1ad4:	4308                	lw	a0,0(a4)
    1ad6:	0807f693          	andi	a3,a5,128
    1ada:	00450593          	addi	a1,a0,4
    1ade:	c6c5                	beqz	a3,1b86 <_printf_i+0x114>
    1ae0:	411c                	lw	a5,0(a0)
    1ae2:	c30c                	sw	a1,0(a4)
    1ae4:	0007d863          	bgez	a5,1af4 <_printf_i+0x82>
    1ae8:	02d00713          	li	a4,45
    1aec:	40f007b3          	neg	a5,a5
    1af0:	04e401a3          	sb	a4,67(s0)
    1af4:	00000697          	auipc	a3,0x0
    1af8:	5d068693          	addi	a3,a3,1488 # 20c4 <__sf_fake_stdout+0x34>
    1afc:	4729                	li	a4,10
    1afe:	a86d                	j	1bb8 <_printf_i+0x146>
    1b00:	07000793          	li	a5,112
    1b04:	16f68363          	beq	a3,a5,1c6a <_printf_i+0x1f8>
    1b08:	02d7e563          	bltu	a5,a3,1b32 <_printf_i+0xc0>
    1b0c:	06e00793          	li	a5,110
    1b10:	18f68a63          	beq	a3,a5,1ca4 <_printf_i+0x232>
    1b14:	06f00793          	li	a5,111
    1b18:	faf690e3          	bne	a3,a5,1ab8 <_printf_i+0x46>
    1b1c:	400c                	lw	a1,0(s0)
    1b1e:	431c                	lw	a5,0(a4)
    1b20:	0805f813          	andi	a6,a1,128
    1b24:	00478513          	addi	a0,a5,4
    1b28:	06080763          	beqz	a6,1b96 <_printf_i+0x124>
    1b2c:	c308                	sw	a0,0(a4)
    1b2e:	439c                	lw	a5,0(a5)
    1b30:	a88d                	j	1ba2 <_printf_i+0x130>
    1b32:	07500793          	li	a5,117
    1b36:	fef683e3          	beq	a3,a5,1b1c <_printf_i+0xaa>
    1b3a:	07800793          	li	a5,120
    1b3e:	12f68a63          	beq	a3,a5,1c72 <_printf_i+0x200>
    1b42:	07300793          	li	a5,115
    1b46:	f6f699e3          	bne	a3,a5,1ab8 <_printf_i+0x46>
    1b4a:	431c                	lw	a5,0(a4)
    1b4c:	41d0                	lw	a2,4(a1)
    1b4e:	4581                	li	a1,0
    1b50:	00478693          	addi	a3,a5,4
    1b54:	c314                	sw	a3,0(a4)
    1b56:	0007aa83          	lw	s5,0(a5)
    1b5a:	8556                	mv	a0,s5
    1b5c:	2eed                	jal	1f56 <memchr>
    1b5e:	c501                	beqz	a0,1b66 <_printf_i+0xf4>
    1b60:	41550533          	sub	a0,a0,s5
    1b64:	c048                	sw	a0,4(s0)
    1b66:	405c                	lw	a5,4(s0)
    1b68:	c81c                	sw	a5,16(s0)
    1b6a:	040401a3          	sb	zero,67(s0)
    1b6e:	a871                	j	1c0a <_printf_i+0x198>
    1b70:	431c                	lw	a5,0(a4)
    1b72:	04240a93          	addi	s5,s0,66
    1b76:	00478693          	addi	a3,a5,4
    1b7a:	439c                	lw	a5,0(a5)
    1b7c:	c314                	sw	a3,0(a4)
    1b7e:	04f40123          	sb	a5,66(s0)
    1b82:	4785                	li	a5,1
    1b84:	b7d5                	j	1b68 <_printf_i+0xf6>
    1b86:	0407f693          	andi	a3,a5,64
    1b8a:	411c                	lw	a5,0(a0)
    1b8c:	c30c                	sw	a1,0(a4)
    1b8e:	dab9                	beqz	a3,1ae4 <_printf_i+0x72>
    1b90:	07c2                	slli	a5,a5,0x10
    1b92:	87c1                	srai	a5,a5,0x10
    1b94:	bf81                	j	1ae4 <_printf_i+0x72>
    1b96:	0405f593          	andi	a1,a1,64
    1b9a:	c308                	sw	a0,0(a4)
    1b9c:	d9c9                	beqz	a1,1b2e <_printf_i+0xbc>
    1b9e:	0007d783          	lhu	a5,0(a5)
    1ba2:	06f00713          	li	a4,111
    1ba6:	0ee68763          	beq	a3,a4,1c94 <_printf_i+0x222>
    1baa:	00000697          	auipc	a3,0x0
    1bae:	51a68693          	addi	a3,a3,1306 # 20c4 <__sf_fake_stdout+0x34>
    1bb2:	4729                	li	a4,10
    1bb4:	040401a3          	sb	zero,67(s0)
    1bb8:	404c                	lw	a1,4(s0)
    1bba:	c40c                	sw	a1,8(s0)
    1bbc:	0005c563          	bltz	a1,1bc6 <_printf_i+0x154>
    1bc0:	4008                	lw	a0,0(s0)
    1bc2:	996d                	andi	a0,a0,-5
    1bc4:	c008                	sw	a0,0(s0)
    1bc6:	e399                	bnez	a5,1bcc <_printf_i+0x15a>
    1bc8:	8ab2                	mv	s5,a2
    1bca:	cd91                	beqz	a1,1be6 <_printf_i+0x174>
    1bcc:	8ab2                	mv	s5,a2
    1bce:	02e7f5b3          	remu	a1,a5,a4
    1bd2:	1afd                	addi	s5,s5,-1
    1bd4:	95b6                	add	a1,a1,a3
    1bd6:	0005c583          	lbu	a1,0(a1)
    1bda:	00ba8023          	sb	a1,0(s5)
    1bde:	02e7d5b3          	divu	a1,a5,a4
    1be2:	0ae7ff63          	bgeu	a5,a4,1ca0 <_printf_i+0x22e>
    1be6:	47a1                	li	a5,8
    1be8:	00f71e63          	bne	a4,a5,1c04 <_printf_i+0x192>
    1bec:	401c                	lw	a5,0(s0)
    1bee:	8b85                	andi	a5,a5,1
    1bf0:	cb91                	beqz	a5,1c04 <_printf_i+0x192>
    1bf2:	4058                	lw	a4,4(s0)
    1bf4:	481c                	lw	a5,16(s0)
    1bf6:	00e7c763          	blt	a5,a4,1c04 <_printf_i+0x192>
    1bfa:	03000793          	li	a5,48
    1bfe:	fefa8fa3          	sb	a5,-1(s5)
    1c02:	1afd                	addi	s5,s5,-1
    1c04:	41560633          	sub	a2,a2,s5
    1c08:	c810                	sw	a2,16(s0)
    1c0a:	874e                	mv	a4,s3
    1c0c:	86ca                	mv	a3,s2
    1c0e:	0070                	addi	a2,sp,12
    1c10:	85a2                	mv	a1,s0
    1c12:	8526                	mv	a0,s1
    1c14:	3b89                	jal	1966 <_printf_common>
    1c16:	5a7d                	li	s4,-1
    1c18:	0b451e63          	bne	a0,s4,1cd4 <_printf_i+0x262>
    1c1c:	557d                	li	a0,-1
    1c1e:	50b2                	lw	ra,44(sp)
    1c20:	5422                	lw	s0,40(sp)
    1c22:	5492                	lw	s1,36(sp)
    1c24:	5902                	lw	s2,32(sp)
    1c26:	49f2                	lw	s3,28(sp)
    1c28:	4a62                	lw	s4,24(sp)
    1c2a:	4ad2                	lw	s5,20(sp)
    1c2c:	4b42                	lw	s6,16(sp)
    1c2e:	6145                	addi	sp,sp,48
    1c30:	8082                	ret
    1c32:	04d582a3          	sb	a3,69(a1)
    1c36:	00000697          	auipc	a3,0x0
    1c3a:	48e68693          	addi	a3,a3,1166 # 20c4 <__sf_fake_stdout+0x34>
    1c3e:	400c                	lw	a1,0(s0)
    1c40:	4308                	lw	a0,0(a4)
    1c42:	0805f813          	andi	a6,a1,128
    1c46:	411c                	lw	a5,0(a0)
    1c48:	0511                	addi	a0,a0,4
    1c4a:	02080d63          	beqz	a6,1c84 <_printf_i+0x212>
    1c4e:	c308                	sw	a0,0(a4)
    1c50:	0015f713          	andi	a4,a1,1
    1c54:	c701                	beqz	a4,1c5c <_printf_i+0x1ea>
    1c56:	0205e593          	ori	a1,a1,32
    1c5a:	c00c                	sw	a1,0(s0)
    1c5c:	4741                	li	a4,16
    1c5e:	fbb9                	bnez	a5,1bb4 <_printf_i+0x142>
    1c60:	400c                	lw	a1,0(s0)
    1c62:	fdf5f593          	andi	a1,a1,-33
    1c66:	c00c                	sw	a1,0(s0)
    1c68:	b7b1                	j	1bb4 <_printf_i+0x142>
    1c6a:	419c                	lw	a5,0(a1)
    1c6c:	0207e793          	ori	a5,a5,32
    1c70:	c19c                	sw	a5,0(a1)
    1c72:	07800793          	li	a5,120
    1c76:	04f402a3          	sb	a5,69(s0)
    1c7a:	00000697          	auipc	a3,0x0
    1c7e:	45e68693          	addi	a3,a3,1118 # 20d8 <__sf_fake_stdout+0x48>
    1c82:	bf75                	j	1c3e <_printf_i+0x1cc>
    1c84:	0405f813          	andi	a6,a1,64
    1c88:	c308                	sw	a0,0(a4)
    1c8a:	fc0803e3          	beqz	a6,1c50 <_printf_i+0x1de>
    1c8e:	07c2                	slli	a5,a5,0x10
    1c90:	83c1                	srli	a5,a5,0x10
    1c92:	bf7d                	j	1c50 <_printf_i+0x1de>
    1c94:	00000697          	auipc	a3,0x0
    1c98:	43068693          	addi	a3,a3,1072 # 20c4 <__sf_fake_stdout+0x34>
    1c9c:	4721                	li	a4,8
    1c9e:	bf19                	j	1bb4 <_printf_i+0x142>
    1ca0:	87ae                	mv	a5,a1
    1ca2:	b735                	j	1bce <_printf_i+0x15c>
    1ca4:	4194                	lw	a3,0(a1)
    1ca6:	431c                	lw	a5,0(a4)
    1ca8:	49cc                	lw	a1,20(a1)
    1caa:	0806f813          	andi	a6,a3,128
    1cae:	00478513          	addi	a0,a5,4
    1cb2:	00080663          	beqz	a6,1cbe <_printf_i+0x24c>
    1cb6:	c308                	sw	a0,0(a4)
    1cb8:	439c                	lw	a5,0(a5)
    1cba:	c38c                	sw	a1,0(a5)
    1cbc:	a801                	j	1ccc <_printf_i+0x25a>
    1cbe:	c308                	sw	a0,0(a4)
    1cc0:	0406f693          	andi	a3,a3,64
    1cc4:	439c                	lw	a5,0(a5)
    1cc6:	daf5                	beqz	a3,1cba <_printf_i+0x248>
    1cc8:	00b79023          	sh	a1,0(a5)
    1ccc:	00042823          	sw	zero,16(s0)
    1cd0:	8ab2                	mv	s5,a2
    1cd2:	bf25                	j	1c0a <_printf_i+0x198>
    1cd4:	4814                	lw	a3,16(s0)
    1cd6:	8656                	mv	a2,s5
    1cd8:	85ca                	mv	a1,s2
    1cda:	8526                	mv	a0,s1
    1cdc:	9982                	jalr	s3
    1cde:	f3450fe3          	beq	a0,s4,1c1c <_printf_i+0x1aa>
    1ce2:	401c                	lw	a5,0(s0)
    1ce4:	8b89                	andi	a5,a5,2
    1ce6:	e78d                	bnez	a5,1d10 <_printf_i+0x29e>
    1ce8:	47b2                	lw	a5,12(sp)
    1cea:	4448                	lw	a0,12(s0)
    1cec:	f2f559e3          	bge	a0,a5,1c1e <_printf_i+0x1ac>
    1cf0:	853e                	mv	a0,a5
    1cf2:	b735                	j	1c1e <_printf_i+0x1ac>
    1cf4:	4685                	li	a3,1
    1cf6:	8656                	mv	a2,s5
    1cf8:	85ca                	mv	a1,s2
    1cfa:	8526                	mv	a0,s1
    1cfc:	9982                	jalr	s3
    1cfe:	f1650fe3          	beq	a0,s6,1c1c <_printf_i+0x1aa>
    1d02:	0a05                	addi	s4,s4,1
    1d04:	445c                	lw	a5,12(s0)
    1d06:	4732                	lw	a4,12(sp)
    1d08:	8f99                	sub	a5,a5,a4
    1d0a:	fefa45e3          	blt	s4,a5,1cf4 <_printf_i+0x282>
    1d0e:	bfe9                	j	1ce8 <_printf_i+0x276>
    1d10:	4a01                	li	s4,0
    1d12:	01940a93          	addi	s5,s0,25
    1d16:	5b7d                	li	s6,-1
    1d18:	b7f5                	j	1d04 <_printf_i+0x292>

00001d1a <_putc_r>:
_putc_r():
    1d1a:	1101                	addi	sp,sp,-32
    1d1c:	cc22                	sw	s0,24(sp)
    1d1e:	ce06                	sw	ra,28(sp)
    1d20:	842a                	mv	s0,a0
    1d22:	c909                	beqz	a0,1d34 <_putc_r+0x1a>
    1d24:	4d1c                	lw	a5,24(a0)
    1d26:	e799                	bnez	a5,1d34 <_putc_r+0x1a>
    1d28:	c632                	sw	a2,12(sp)
    1d2a:	c42e                	sw	a1,8(sp)
    1d2c:	d46ff0ef          	jal	ra,1272 <__sinit>
    1d30:	4632                	lw	a2,12(sp)
    1d32:	45a2                	lw	a1,8(sp)
    1d34:	00000797          	auipc	a5,0x0
    1d38:	33c78793          	addi	a5,a5,828 # 2070 <__sf_fake_stdin>
    1d3c:	02f61663          	bne	a2,a5,1d68 <_putc_r+0x4e>
    1d40:	4050                	lw	a2,4(s0)
    1d42:	461c                	lw	a5,8(a2)
    1d44:	17fd                	addi	a5,a5,-1
    1d46:	c61c                	sw	a5,8(a2)
    1d48:	0407d063          	bgez	a5,1d88 <_putc_r+0x6e>
    1d4c:	4e18                	lw	a4,24(a2)
    1d4e:	00e7c763          	blt	a5,a4,1d5c <_putc_r+0x42>
    1d52:	0ff5f793          	andi	a5,a1,255
    1d56:	4729                	li	a4,10
    1d58:	02e79863          	bne	a5,a4,1d88 <_putc_r+0x6e>
    1d5c:	8522                	mv	a0,s0
    1d5e:	4462                	lw	s0,24(sp)
    1d60:	40f2                	lw	ra,28(sp)
    1d62:	6105                	addi	sp,sp,32
    1d64:	8e4ff06f          	j	e48 <__swbuf_r>
    1d68:	00000797          	auipc	a5,0x0
    1d6c:	32878793          	addi	a5,a5,808 # 2090 <__sf_fake_stdout>
    1d70:	00f61463          	bne	a2,a5,1d78 <_putc_r+0x5e>
    1d74:	4410                	lw	a2,8(s0)
    1d76:	b7f1                	j	1d42 <_putc_r+0x28>
    1d78:	00000797          	auipc	a5,0x0
    1d7c:	2d878793          	addi	a5,a5,728 # 2050 <__sf_fake_stderr>
    1d80:	fcf611e3          	bne	a2,a5,1d42 <_putc_r+0x28>
    1d84:	4450                	lw	a2,12(s0)
    1d86:	bf75                	j	1d42 <_putc_r+0x28>
    1d88:	421c                	lw	a5,0(a2)
    1d8a:	0ff5f513          	andi	a0,a1,255
    1d8e:	00178713          	addi	a4,a5,1
    1d92:	c218                	sw	a4,0(a2)
    1d94:	00b78023          	sb	a1,0(a5)
    1d98:	40f2                	lw	ra,28(sp)
    1d9a:	4462                	lw	s0,24(sp)
    1d9c:	6105                	addi	sp,sp,32
    1d9e:	8082                	ret

00001da0 <_sbrk_r>:
_sbrk_r():
    1da0:	1141                	addi	sp,sp,-16
    1da2:	c422                	sw	s0,8(sp)
    1da4:	842a                	mv	s0,a0
    1da6:	852e                	mv	a0,a1
    1da8:	9a01a423          	sw	zero,-1624(gp) # 20004208 <errno>
    1dac:	c606                	sw	ra,12(sp)
    1dae:	243d                	jal	1fdc <_sbrk>
    1db0:	57fd                	li	a5,-1
    1db2:	00f51763          	bne	a0,a5,1dc0 <_sbrk_r+0x20>
    1db6:	9a818793          	addi	a5,gp,-1624 # 20004208 <errno>
    1dba:	439c                	lw	a5,0(a5)
    1dbc:	c391                	beqz	a5,1dc0 <_sbrk_r+0x20>
    1dbe:	c01c                	sw	a5,0(s0)
    1dc0:	40b2                	lw	ra,12(sp)
    1dc2:	4422                	lw	s0,8(sp)
    1dc4:	0141                	addi	sp,sp,16
    1dc6:	8082                	ret

00001dc8 <__sread>:
__sread():
    1dc8:	1141                	addi	sp,sp,-16
    1dca:	c422                	sw	s0,8(sp)
    1dcc:	842e                	mv	s0,a1
    1dce:	00e59583          	lh	a1,14(a1)
    1dd2:	c606                	sw	ra,12(sp)
    1dd4:	2245                	jal	1f74 <_read_r>
    1dd6:	00054963          	bltz	a0,1de8 <__sread+0x20>
    1dda:	487c                	lw	a5,84(s0)
    1ddc:	97aa                	add	a5,a5,a0
    1dde:	c87c                	sw	a5,84(s0)
    1de0:	40b2                	lw	ra,12(sp)
    1de2:	4422                	lw	s0,8(sp)
    1de4:	0141                	addi	sp,sp,16
    1de6:	8082                	ret
    1de8:	00c45783          	lhu	a5,12(s0)
    1dec:	777d                	lui	a4,0xfffff
    1dee:	177d                	addi	a4,a4,-1
    1df0:	8ff9                	and	a5,a5,a4
    1df2:	00f41623          	sh	a5,12(s0)
    1df6:	b7ed                	j	1de0 <__sread+0x18>

00001df8 <__swrite>:
__swrite():
    1df8:	00c5d783          	lhu	a5,12(a1)
    1dfc:	1101                	addi	sp,sp,-32
    1dfe:	cc22                	sw	s0,24(sp)
    1e00:	ca26                	sw	s1,20(sp)
    1e02:	c84a                	sw	s2,16(sp)
    1e04:	c64e                	sw	s3,12(sp)
    1e06:	ce06                	sw	ra,28(sp)
    1e08:	1007f793          	andi	a5,a5,256
    1e0c:	84aa                	mv	s1,a0
    1e0e:	842e                	mv	s0,a1
    1e10:	8932                	mv	s2,a2
    1e12:	89b6                	mv	s3,a3
    1e14:	c791                	beqz	a5,1e20 <__swrite+0x28>
    1e16:	00e59583          	lh	a1,14(a1)
    1e1a:	4689                	li	a3,2
    1e1c:	4601                	li	a2,0
    1e1e:	2231                	jal	1f2a <_lseek_r>
    1e20:	00c45783          	lhu	a5,12(s0)
    1e24:	777d                	lui	a4,0xfffff
    1e26:	177d                	addi	a4,a4,-1
    1e28:	8ff9                	and	a5,a5,a4
    1e2a:	00f41623          	sh	a5,12(s0)
    1e2e:	00e41583          	lh	a1,14(s0)
    1e32:	4462                	lw	s0,24(sp)
    1e34:	40f2                	lw	ra,28(sp)
    1e36:	86ce                	mv	a3,s3
    1e38:	864a                	mv	a2,s2
    1e3a:	49b2                	lw	s3,12(sp)
    1e3c:	4942                	lw	s2,16(sp)
    1e3e:	8526                	mv	a0,s1
    1e40:	44d2                	lw	s1,20(sp)
    1e42:	6105                	addi	sp,sp,32
    1e44:	a83d                	j	1e82 <_write_r>

00001e46 <__sseek>:
__sseek():
    1e46:	1141                	addi	sp,sp,-16
    1e48:	c422                	sw	s0,8(sp)
    1e4a:	842e                	mv	s0,a1
    1e4c:	00e59583          	lh	a1,14(a1)
    1e50:	c606                	sw	ra,12(sp)
    1e52:	28e1                	jal	1f2a <_lseek_r>
    1e54:	57fd                	li	a5,-1
    1e56:	00c45703          	lhu	a4,12(s0)
    1e5a:	00f51b63          	bne	a0,a5,1e70 <__sseek+0x2a>
    1e5e:	77fd                	lui	a5,0xfffff
    1e60:	17fd                	addi	a5,a5,-1
    1e62:	8ff9                	and	a5,a5,a4
    1e64:	00f41623          	sh	a5,12(s0)
    1e68:	40b2                	lw	ra,12(sp)
    1e6a:	4422                	lw	s0,8(sp)
    1e6c:	0141                	addi	sp,sp,16
    1e6e:	8082                	ret
    1e70:	6785                	lui	a5,0x1
    1e72:	8fd9                	or	a5,a5,a4
    1e74:	00f41623          	sh	a5,12(s0)
    1e78:	c868                	sw	a0,84(s0)
    1e7a:	b7fd                	j	1e68 <__sseek+0x22>

00001e7c <__sclose>:
__sclose():
    1e7c:	00e59583          	lh	a1,14(a1)
    1e80:	a805                	j	1eb0 <_close_r>

00001e82 <_write_r>:
_write_r():
    1e82:	1141                	addi	sp,sp,-16
    1e84:	c422                	sw	s0,8(sp)
    1e86:	842a                	mv	s0,a0
    1e88:	852e                	mv	a0,a1
    1e8a:	85b2                	mv	a1,a2
    1e8c:	8636                	mv	a2,a3
    1e8e:	9a01a423          	sw	zero,-1624(gp) # 20004208 <errno>
    1e92:	c606                	sw	ra,12(sp)
    1e94:	d51fe0ef          	jal	ra,be4 <_write>
    1e98:	57fd                	li	a5,-1
    1e9a:	00f51763          	bne	a0,a5,1ea8 <_write_r+0x26>
    1e9e:	9a818793          	addi	a5,gp,-1624 # 20004208 <errno>
    1ea2:	439c                	lw	a5,0(a5)
    1ea4:	c391                	beqz	a5,1ea8 <_write_r+0x26>
    1ea6:	c01c                	sw	a5,0(s0)
    1ea8:	40b2                	lw	ra,12(sp)
    1eaa:	4422                	lw	s0,8(sp)
    1eac:	0141                	addi	sp,sp,16
    1eae:	8082                	ret

00001eb0 <_close_r>:
_close_r():
    1eb0:	1141                	addi	sp,sp,-16
    1eb2:	c422                	sw	s0,8(sp)
    1eb4:	842a                	mv	s0,a0
    1eb6:	852e                	mv	a0,a1
    1eb8:	9a01a423          	sw	zero,-1624(gp) # 20004208 <errno>
    1ebc:	c606                	sw	ra,12(sp)
    1ebe:	20cd                	jal	1fa0 <_close>
    1ec0:	57fd                	li	a5,-1
    1ec2:	00f51763          	bne	a0,a5,1ed0 <_close_r+0x20>
    1ec6:	9a818793          	addi	a5,gp,-1624 # 20004208 <errno>
    1eca:	439c                	lw	a5,0(a5)
    1ecc:	c391                	beqz	a5,1ed0 <_close_r+0x20>
    1ece:	c01c                	sw	a5,0(s0)
    1ed0:	40b2                	lw	ra,12(sp)
    1ed2:	4422                	lw	s0,8(sp)
    1ed4:	0141                	addi	sp,sp,16
    1ed6:	8082                	ret

00001ed8 <_fstat_r>:
_fstat_r():
    1ed8:	1141                	addi	sp,sp,-16
    1eda:	c422                	sw	s0,8(sp)
    1edc:	842a                	mv	s0,a0
    1ede:	852e                	mv	a0,a1
    1ee0:	85b2                	mv	a1,a2
    1ee2:	9a01a423          	sw	zero,-1624(gp) # 20004208 <errno>
    1ee6:	c606                	sw	ra,12(sp)
    1ee8:	20d1                	jal	1fac <_fstat>
    1eea:	57fd                	li	a5,-1
    1eec:	00f51763          	bne	a0,a5,1efa <_fstat_r+0x22>
    1ef0:	9a818793          	addi	a5,gp,-1624 # 20004208 <errno>
    1ef4:	439c                	lw	a5,0(a5)
    1ef6:	c391                	beqz	a5,1efa <_fstat_r+0x22>
    1ef8:	c01c                	sw	a5,0(s0)
    1efa:	40b2                	lw	ra,12(sp)
    1efc:	4422                	lw	s0,8(sp)
    1efe:	0141                	addi	sp,sp,16
    1f00:	8082                	ret

00001f02 <_isatty_r>:
_isatty_r():
    1f02:	1141                	addi	sp,sp,-16
    1f04:	c422                	sw	s0,8(sp)
    1f06:	842a                	mv	s0,a0
    1f08:	852e                	mv	a0,a1
    1f0a:	9a01a423          	sw	zero,-1624(gp) # 20004208 <errno>
    1f0e:	c606                	sw	ra,12(sp)
    1f10:	2065                	jal	1fb8 <_isatty>
    1f12:	57fd                	li	a5,-1
    1f14:	00f51763          	bne	a0,a5,1f22 <_isatty_r+0x20>
    1f18:	9a818793          	addi	a5,gp,-1624 # 20004208 <errno>
    1f1c:	439c                	lw	a5,0(a5)
    1f1e:	c391                	beqz	a5,1f22 <_isatty_r+0x20>
    1f20:	c01c                	sw	a5,0(s0)
    1f22:	40b2                	lw	ra,12(sp)
    1f24:	4422                	lw	s0,8(sp)
    1f26:	0141                	addi	sp,sp,16
    1f28:	8082                	ret

00001f2a <_lseek_r>:
_lseek_r():
    1f2a:	1141                	addi	sp,sp,-16
    1f2c:	c422                	sw	s0,8(sp)
    1f2e:	842a                	mv	s0,a0
    1f30:	852e                	mv	a0,a1
    1f32:	85b2                	mv	a1,a2
    1f34:	8636                	mv	a2,a3
    1f36:	9a01a423          	sw	zero,-1624(gp) # 20004208 <errno>
    1f3a:	c606                	sw	ra,12(sp)
    1f3c:	2061                	jal	1fc4 <_lseek>
    1f3e:	57fd                	li	a5,-1
    1f40:	00f51763          	bne	a0,a5,1f4e <_lseek_r+0x24>
    1f44:	9a818793          	addi	a5,gp,-1624 # 20004208 <errno>
    1f48:	439c                	lw	a5,0(a5)
    1f4a:	c391                	beqz	a5,1f4e <_lseek_r+0x24>
    1f4c:	c01c                	sw	a5,0(s0)
    1f4e:	40b2                	lw	ra,12(sp)
    1f50:	4422                	lw	s0,8(sp)
    1f52:	0141                	addi	sp,sp,16
    1f54:	8082                	ret

00001f56 <memchr>:
memchr():
    1f56:	0ff5f593          	andi	a1,a1,255
    1f5a:	962a                	add	a2,a2,a0
    1f5c:	00c51463          	bne	a0,a2,1f64 <memchr+0xe>
    1f60:	4501                	li	a0,0
    1f62:	8082                	ret
    1f64:	00054783          	lbu	a5,0(a0)
    1f68:	feb78de3          	beq	a5,a1,1f62 <memchr+0xc>
    1f6c:	0505                	addi	a0,a0,1
    1f6e:	b7fd                	j	1f5c <memchr+0x6>

00001f70 <__malloc_lock>:
__malloc_lock():
    1f70:	8082                	ret

00001f72 <__malloc_unlock>:
__malloc_unlock():
    1f72:	8082                	ret

00001f74 <_read_r>:
_read_r():
    1f74:	1141                	addi	sp,sp,-16
    1f76:	c422                	sw	s0,8(sp)
    1f78:	842a                	mv	s0,a0
    1f7a:	852e                	mv	a0,a1
    1f7c:	85b2                	mv	a1,a2
    1f7e:	8636                	mv	a2,a3
    1f80:	9a01a423          	sw	zero,-1624(gp) # 20004208 <errno>
    1f84:	c606                	sw	ra,12(sp)
    1f86:	20a9                	jal	1fd0 <_read>
    1f88:	57fd                	li	a5,-1
    1f8a:	00f51763          	bne	a0,a5,1f98 <_read_r+0x24>
    1f8e:	9a818793          	addi	a5,gp,-1624 # 20004208 <errno>
    1f92:	439c                	lw	a5,0(a5)
    1f94:	c391                	beqz	a5,1f98 <_read_r+0x24>
    1f96:	c01c                	sw	a5,0(s0)
    1f98:	40b2                	lw	ra,12(sp)
    1f9a:	4422                	lw	s0,8(sp)
    1f9c:	0141                	addi	sp,sp,16
    1f9e:	8082                	ret

00001fa0 <_close>:
_close():
    1fa0:	05800793          	li	a5,88
    1fa4:	9af1a423          	sw	a5,-1624(gp) # 20004208 <errno>
    1fa8:	557d                	li	a0,-1
    1faa:	8082                	ret

00001fac <_fstat>:
_fstat():
    1fac:	05800793          	li	a5,88
    1fb0:	9af1a423          	sw	a5,-1624(gp) # 20004208 <errno>
    1fb4:	557d                	li	a0,-1
    1fb6:	8082                	ret

00001fb8 <_isatty>:
_isatty():
    1fb8:	05800793          	li	a5,88
    1fbc:	9af1a423          	sw	a5,-1624(gp) # 20004208 <errno>
    1fc0:	4501                	li	a0,0
    1fc2:	8082                	ret

00001fc4 <_lseek>:
_lseek():
    1fc4:	05800793          	li	a5,88
    1fc8:	9af1a423          	sw	a5,-1624(gp) # 20004208 <errno>
    1fcc:	557d                	li	a0,-1
    1fce:	8082                	ret

00001fd0 <_read>:
_read():
    1fd0:	05800793          	li	a5,88
    1fd4:	9af1a423          	sw	a5,-1624(gp) # 20004208 <errno>
    1fd8:	557d                	li	a0,-1
    1fda:	8082                	ret

00001fdc <_sbrk>:
_sbrk():
    1fdc:	81418793          	addi	a5,gp,-2028 # 20004074 <heap_end.1518>
    1fe0:	439c                	lw	a5,0(a5)
    1fe2:	c791                	beqz	a5,1fee <_sbrk+0x12>
    1fe4:	953e                	add	a0,a0,a5
    1fe6:	80a1aa23          	sw	a0,-2028(gp) # 20004074 <heap_end.1518>
    1fea:	853e                	mv	a0,a5
    1fec:	8082                	ret
    1fee:	9ac18793          	addi	a5,gp,-1620 # 2000420c <_ebss>
    1ff2:	953e                	add	a0,a0,a5
    1ff4:	80a1aa23          	sw	a0,-2028(gp) # 20004074 <heap_end.1518>
    1ff8:	853e                	mv	a0,a5
    1ffa:	8082                	ret
    1ffc:	72617453          	0x72617453
    2000:	2074                	fld	fa3,192(s0)
    2002:	4340                	lw	s0,4(a4)
    2004:	6968                	flw	fa0,84(a0)
    2006:	4970                	lw	a2,84(a0)
    2008:	3d44                	fld	fs1,184(a0)
    200a:	3025                	jal	1832 <_vfiprintf_r+0x166>
    200c:	5832                	lw	a6,44(sp)
    200e:	000a                	c.slli	zero,0x2
    2010:	3025                	jal	1838 <_vfiprintf_r+0x16c>
    2012:	6c38                	flw	fa4,88(s0)
    2014:	2064                	fld	fs1,192(s0)
    2016:	0000                	unimp
    2018:	253d                	jal	2646 <_data_lma+0x556>
    201a:	646c                	flw	fa1,76(s0)
    201c:	0a20                	addi	s0,sp,280
    201e:	0000                	unimp
    2020:	4d44                	lw	s1,28(a0)
    2022:	2041                	jal	20a2 <__sf_fake_stdout+0x12>
    2024:	6e65                	lui	t3,0x19
    2026:	0064                	addi	s1,sp,12
    2028:	e9d0                	fsw	fa2,20(a1)
    202a:	ffff                	0xffff
    202c:	e9f8                	fsw	fa4,84(a1)
    202e:	ffff                	0xffff
    2030:	ea20                	fsw	fs0,80(a2)
    2032:	ffff                	0xffff
    2034:	ea38                	fsw	fa4,80(a2)
    2036:	ffff                	0xffff
    2038:	ea52                	fsw	fs4,20(sp)
    203a:	ffff                	0xffff
    203c:	ea62                	fsw	fs8,20(sp)
    203e:	ffff                	0xffff
    2040:	ea8a                	fsw	ft2,84(sp)
    2042:	ffff                	0xffff
    2044:	eab2                	fsw	fa2,84(sp)
    2046:	ffff                	0xffff
    2048:	eaca                	fsw	fs2,84(sp)
    204a:	ffff                	0xffff
    204c:	eae4                	fsw	fs1,84(a3)
    204e:	ffff                	0xffff

00002050 <__sf_fake_stderr>:
	...

00002070 <__sf_fake_stdin>:
	...

00002090 <__sf_fake_stdout>:
	...
    20b0:	2d23 2b30 0020 0000 6c68 004c 6665 4567     #-0+ ...hlL.efgE
    20c0:	4746 0000 3130 3332 3534 3736 3938 4241     FG..0123456789AB
    20d0:	4443 4645 0000 0000 3130 3332 3534 3736     CDEF....01234567
    20e0:	3938 6261 6463 6665 0000 0000               89abcdef....

000020ec <_global_impure_ptr>:
    20ec:	4000 2000                                   .@. 
